

Microchip MPLAB XC8 Assembler V2.46 build 20240104201356 
                                                                                               Sat Mar 30 20:27:48 2024

Microchip MPLAB XC8 C Compiler v2.46 (Free license) build 20240104201356 Og1 
     1                           	processor	16F877A
     2                           	pagewidth 120
     3                           	opt	flic
     4                           	psect	idataBANK0,global,class=CODE,delta=2,noexec
     5                           	psect	idataBANK1,global,class=CODE,delta=2,noexec
     6                           	psect	nvBANK0,global,class=BANK0,space=1,delta=1,noexec
     7                           	psect	strings,global,class=STRING,delta=2,noexec
     8                           	psect	stringtext,global,reloc=256,class=STRCODE,delta=2,noexec
     9                           	psect	cinit,global,class=CODE,merge=1,delta=2
    10                           	psect	bssCOMMON,global,class=COMMON,space=1,delta=1,noexec
    11                           	psect	bssBANK0,global,class=BANK0,space=1,delta=1,noexec
    12                           	psect	dataBANK0,global,class=BANK0,space=1,delta=1,noexec
    13                           	psect	bssBANK1,global,class=BANK1,space=1,delta=1,noexec
    14                           	psect	dataBANK1,global,class=BANK1,space=1,delta=1,noexec
    15                           	psect	inittext,global,class=CODE,delta=2
    16                           	psect	cstackCOMMON,global,class=COMMON,space=1,delta=1,noexec
    17                           	psect	cstackBANK0,global,class=BANK0,space=1,delta=1,noexec
    18                           	psect	maintext,global,class=CODE,split=1,delta=2
    19                           	psect	text1,local,class=CODE,merge=1,delta=2
    20                           	psect	text2,local,class=CODE,merge=1,delta=2
    21                           	psect	text3,local,class=CODE,merge=1,delta=2
    22                           	psect	text4,local,class=CODE,merge=1,delta=2
    23                           	psect	text5,local,class=CODE,merge=1,delta=2
    24                           	psect	text6,local,class=CODE,merge=1,delta=2
    25                           	psect	text7,local,class=CODE,merge=1,delta=2,group=1
    26                           	psect	text8,local,class=CODE,merge=1,delta=2,group=1
    27                           	psect	text9,local,class=CODE,merge=1,delta=2,group=1
    28                           	psect	text10,local,class=CODE,merge=1,delta=2,group=1
    29                           	psect	text11,local,class=CODE,merge=1,delta=2,group=1
    30                           	psect	text12,local,class=CODE,merge=1,delta=2,group=1
    31                           	psect	text13,local,class=CODE,merge=1,delta=2,group=1
    32                           	psect	text14,local,class=CODE,merge=1,delta=2,group=1
    33                           	psect	text15,local,class=CODE,merge=1,delta=2,group=1
    34                           	psect	text16,local,class=CODE,merge=1,delta=2,group=1
    35                           	psect	text17,local,class=CODE,merge=1,delta=2
    36                           	psect	text18,local,class=CODE,merge=1,delta=2
    37                           	psect	text19,local,class=CODE,merge=1,delta=2
    38                           	psect	text20,local,class=CODE,merge=1,delta=2
    39                           	psect	text21,local,class=CODE,merge=1,delta=2
    40                           	psect	text22,local,class=CODE,merge=1,delta=2
    41                           	psect	text23,local,class=CODE,merge=1,delta=2
    42                           	psect	text24,local,class=CODE,merge=1,delta=2
    43                           	psect	text25,local,class=CODE,merge=1,delta=2
    44                           	psect	text26,local,class=CODE,merge=1,delta=2
    45                           	psect	text27,local,class=CODE,merge=1,delta=2
    46                           	psect	intentry,global,class=CODE,delta=2
    47                           	dabs	1,0x7E,2
    48     0000                     
    49                           ; Generated 22/03/2023 GMT
    50                           ; 
    51                           ; Copyright © 2023, Microchip Technology Inc. and its subsidiaries ("Microchip")
    52                           ; All rights reserved.
    53                           ; 
    54                           ; This software is developed by Microchip Technology Inc. and its subsidiaries ("Microch
      +                          ip").
    55                           ; 
    56                           ; Redistribution and use in source and binary forms, with or without modification, are
    57                           ; permitted provided that the following conditions are met:
    58                           ; 
    59                           ;     1. Redistributions of source code must retain the above copyright notice, this lis
      +                          t of
    60                           ;        conditions and the following disclaimer.
    61                           ; 
    62                           ;     2. Redistributions in binary form must reproduce the above copyright notice, this 
      +                          list
    63                           ;        of conditions and the following disclaimer in the documentation and/or other
    64                           ;        materials provided with the distribution. Publication is not required when
    65                           ;        this file is used in an embedded application.
    66                           ; 
    67                           ;     3. Microchip's name may not be used to endorse or promote products derived from th
      +                          is
    68                           ;        software without specific prior written permission.
    69                           ; 
    70                           ; THIS SOFTWARE IS PROVIDED BY MICROCHIP "AS IS" AND ANY EXPRESS OR IMPLIED WARRANTIES,
    71                           ; INCLUDING, BUT NOT LIMITED TO, THE IMPLIED WARRANTIES OF MERCHANTABILITY AND FITNESS F
      +                          OR
    72                           ; PURPOSE ARE DISCLAIMED.  IN NO EVENT SHALL MICROCHIP BE LIABLE FOR ANY DIRECT, INDIREC
      +                          T,
    73                           ; INCIDENTAL, SPECIAL, EXEMPLARY, OR CONSEQUENTIAL DAMAGES (INCLUDING BUT NOT LIMITED TO
    74                           ; PROCUREMENT OF SUBSTITUTE GOODS OR SERVICES; LOSS OF USE, DATA OR PROFITS; OR BUSINESS
    75                           ; INTERRUPTION) HOWSOEVER CAUSED AND ON ANY THEORY OF LIABILITY, WHETHER IN CONTRACT, ST
      +                          RICT
    76                           ; LIABILITY, OR TORT (INCLUDING NEGLIGENCE OR OTHERWISE) ARISING IN ANY WAY OUT OF THE U
      +                          SE OF
    77                           ; THIS SOFTWARE, EVEN IF ADVISED OF THE POSSIBILITY OF SUCH DAMAGE.
    78                           ; 
    79                           ; 
    80                           ; Code-generator required, PIC16F877A Definitions
    81                           ; 
    82                           ; SFR Addresses
    83     0000                     	;# 
    84     0001                     	;# 
    85     0002                     	;# 
    86     0003                     	;# 
    87     0004                     	;# 
    88     0005                     	;# 
    89     0006                     	;# 
    90     0007                     	;# 
    91     0008                     	;# 
    92     0009                     	;# 
    93     000A                     	;# 
    94     000B                     	;# 
    95     000C                     	;# 
    96     000D                     	;# 
    97     000E                     	;# 
    98     000E                     	;# 
    99     000F                     	;# 
   100     0010                     	;# 
   101     0011                     	;# 
   102     0012                     	;# 
   103     0013                     	;# 
   104     0014                     	;# 
   105     0015                     	;# 
   106     0015                     	;# 
   107     0016                     	;# 
   108     0017                     	;# 
   109     0018                     	;# 
   110     0019                     	;# 
   111     001A                     	;# 
   112     001B                     	;# 
   113     001B                     	;# 
   114     001C                     	;# 
   115     001D                     	;# 
   116     001E                     	;# 
   117     001F                     	;# 
   118     0081                     	;# 
   119     0085                     	;# 
   120     0086                     	;# 
   121     0087                     	;# 
   122     0088                     	;# 
   123     0089                     	;# 
   124     008C                     	;# 
   125     008D                     	;# 
   126     008E                     	;# 
   127     0091                     	;# 
   128     0092                     	;# 
   129     0093                     	;# 
   130     0094                     	;# 
   131     0098                     	;# 
   132     0099                     	;# 
   133     009C                     	;# 
   134     009D                     	;# 
   135     009E                     	;# 
   136     009F                     	;# 
   137     010C                     	;# 
   138     010D                     	;# 
   139     010E                     	;# 
   140     010F                     	;# 
   141     018C                     	;# 
   142     018D                     	;# 
   143     0000                     	;# 
   144     0001                     	;# 
   145     0002                     	;# 
   146     0003                     	;# 
   147     0004                     	;# 
   148     0005                     	;# 
   149     0006                     	;# 
   150     0007                     	;# 
   151     0008                     	;# 
   152     0009                     	;# 
   153     000A                     	;# 
   154     000B                     	;# 
   155     000C                     	;# 
   156     000D                     	;# 
   157     000E                     	;# 
   158     000E                     	;# 
   159     000F                     	;# 
   160     0010                     	;# 
   161     0011                     	;# 
   162     0012                     	;# 
   163     0013                     	;# 
   164     0014                     	;# 
   165     0015                     	;# 
   166     0015                     	;# 
   167     0016                     	;# 
   168     0017                     	;# 
   169     0018                     	;# 
   170     0019                     	;# 
   171     001A                     	;# 
   172     001B                     	;# 
   173     001B                     	;# 
   174     001C                     	;# 
   175     001D                     	;# 
   176     001E                     	;# 
   177     001F                     	;# 
   178     0081                     	;# 
   179     0085                     	;# 
   180     0086                     	;# 
   181     0087                     	;# 
   182     0088                     	;# 
   183     0089                     	;# 
   184     008C                     	;# 
   185     008D                     	;# 
   186     008E                     	;# 
   187     0091                     	;# 
   188     0092                     	;# 
   189     0093                     	;# 
   190     0094                     	;# 
   191     0098                     	;# 
   192     0099                     	;# 
   193     009C                     	;# 
   194     009D                     	;# 
   195     009E                     	;# 
   196     009F                     	;# 
   197     010C                     	;# 
   198     010D                     	;# 
   199     010E                     	;# 
   200     010F                     	;# 
   201     018C                     	;# 
   202     018D                     	;# 
   203     0000                     	;# 
   204     0001                     	;# 
   205     0002                     	;# 
   206     0003                     	;# 
   207     0004                     	;# 
   208     0005                     	;# 
   209     0006                     	;# 
   210     0007                     	;# 
   211     0008                     	;# 
   212     0009                     	;# 
   213     000A                     	;# 
   214     000B                     	;# 
   215     000C                     	;# 
   216     000D                     	;# 
   217     000E                     	;# 
   218     000E                     	;# 
   219     000F                     	;# 
   220     0010                     	;# 
   221     0011                     	;# 
   222     0012                     	;# 
   223     0013                     	;# 
   224     0014                     	;# 
   225     0015                     	;# 
   226     0015                     	;# 
   227     0016                     	;# 
   228     0017                     	;# 
   229     0018                     	;# 
   230     0019                     	;# 
   231     001A                     	;# 
   232     001B                     	;# 
   233     001B                     	;# 
   234     001C                     	;# 
   235     001D                     	;# 
   236     001E                     	;# 
   237     001F                     	;# 
   238     0081                     	;# 
   239     0085                     	;# 
   240     0086                     	;# 
   241     0087                     	;# 
   242     0088                     	;# 
   243     0089                     	;# 
   244     008C                     	;# 
   245     008D                     	;# 
   246     008E                     	;# 
   247     0091                     	;# 
   248     0092                     	;# 
   249     0093                     	;# 
   250     0094                     	;# 
   251     0098                     	;# 
   252     0099                     	;# 
   253     009C                     	;# 
   254     009D                     	;# 
   255     009E                     	;# 
   256     009F                     	;# 
   257     010C                     	;# 
   258     010D                     	;# 
   259     010E                     	;# 
   260     010F                     	;# 
   261     018C                     	;# 
   262     018D                     	;# 
   263     0000                     	;# 
   264     0001                     	;# 
   265     0002                     	;# 
   266     0003                     	;# 
   267     0004                     	;# 
   268     0005                     	;# 
   269     0006                     	;# 
   270     0007                     	;# 
   271     0008                     	;# 
   272     0009                     	;# 
   273     000A                     	;# 
   274     000B                     	;# 
   275     000C                     	;# 
   276     000D                     	;# 
   277     000E                     	;# 
   278     000E                     	;# 
   279     000F                     	;# 
   280     0010                     	;# 
   281     0011                     	;# 
   282     0012                     	;# 
   283     0013                     	;# 
   284     0014                     	;# 
   285     0015                     	;# 
   286     0015                     	;# 
   287     0016                     	;# 
   288     0017                     	;# 
   289     0018                     	;# 
   290     0019                     	;# 
   291     001A                     	;# 
   292     001B                     	;# 
   293     001B                     	;# 
   294     001C                     	;# 
   295     001D                     	;# 
   296     001E                     	;# 
   297     001F                     	;# 
   298     0081                     	;# 
   299     0085                     	;# 
   300     0086                     	;# 
   301     0087                     	;# 
   302     0088                     	;# 
   303     0089                     	;# 
   304     008C                     	;# 
   305     008D                     	;# 
   306     008E                     	;# 
   307     0091                     	;# 
   308     0092                     	;# 
   309     0093                     	;# 
   310     0094                     	;# 
   311     0098                     	;# 
   312     0099                     	;# 
   313     009C                     	;# 
   314     009D                     	;# 
   315     009E                     	;# 
   316     009F                     	;# 
   317     010C                     	;# 
   318     010D                     	;# 
   319     010E                     	;# 
   320     010F                     	;# 
   321     018C                     	;# 
   322     018D                     	;# 
   323     0000                     	;# 
   324     0001                     	;# 
   325     0002                     	;# 
   326     0003                     	;# 
   327     0004                     	;# 
   328     0005                     	;# 
   329     0006                     	;# 
   330     0007                     	;# 
   331     0008                     	;# 
   332     0009                     	;# 
   333     000A                     	;# 
   334     000B                     	;# 
   335     000C                     	;# 
   336     000D                     	;# 
   337     000E                     	;# 
   338     000E                     	;# 
   339     000F                     	;# 
   340     0010                     	;# 
   341     0011                     	;# 
   342     0012                     	;# 
   343     0013                     	;# 
   344     0014                     	;# 
   345     0015                     	;# 
   346     0015                     	;# 
   347     0016                     	;# 
   348     0017                     	;# 
   349     0018                     	;# 
   350     0019                     	;# 
   351     001A                     	;# 
   352     001B                     	;# 
   353     001B                     	;# 
   354     001C                     	;# 
   355     001D                     	;# 
   356     001E                     	;# 
   357     001F                     	;# 
   358     0081                     	;# 
   359     0085                     	;# 
   360     0086                     	;# 
   361     0087                     	;# 
   362     0088                     	;# 
   363     0089                     	;# 
   364     008C                     	;# 
   365     008D                     	;# 
   366     008E                     	;# 
   367     0091                     	;# 
   368     0092                     	;# 
   369     0093                     	;# 
   370     0094                     	;# 
   371     0098                     	;# 
   372     0099                     	;# 
   373     009C                     	;# 
   374     009D                     	;# 
   375     009E                     	;# 
   376     009F                     	;# 
   377     010C                     	;# 
   378     010D                     	;# 
   379     010E                     	;# 
   380     010F                     	;# 
   381     018C                     	;# 
   382     018D                     	;# 
   383     0000                     	;# 
   384     0001                     	;# 
   385     0002                     	;# 
   386     0003                     	;# 
   387     0004                     	;# 
   388     0005                     	;# 
   389     0006                     	;# 
   390     0007                     	;# 
   391     0008                     	;# 
   392     0009                     	;# 
   393     000A                     	;# 
   394     000B                     	;# 
   395     000C                     	;# 
   396     000D                     	;# 
   397     000E                     	;# 
   398     000E                     	;# 
   399     000F                     	;# 
   400     0010                     	;# 
   401     0011                     	;# 
   402     0012                     	;# 
   403     0013                     	;# 
   404     0014                     	;# 
   405     0015                     	;# 
   406     0015                     	;# 
   407     0016                     	;# 
   408     0017                     	;# 
   409     0018                     	;# 
   410     0019                     	;# 
   411     001A                     	;# 
   412     001B                     	;# 
   413     001B                     	;# 
   414     001C                     	;# 
   415     001D                     	;# 
   416     001E                     	;# 
   417     001F                     	;# 
   418     0081                     	;# 
   419     0085                     	;# 
   420     0086                     	;# 
   421     0087                     	;# 
   422     0088                     	;# 
   423     0089                     	;# 
   424     008C                     	;# 
   425     008D                     	;# 
   426     008E                     	;# 
   427     0091                     	;# 
   428     0092                     	;# 
   429     0093                     	;# 
   430     0094                     	;# 
   431     0098                     	;# 
   432     0099                     	;# 
   433     009C                     	;# 
   434     009D                     	;# 
   435     009E                     	;# 
   436     009F                     	;# 
   437     010C                     	;# 
   438     010D                     	;# 
   439     010E                     	;# 
   440     010F                     	;# 
   441     018C                     	;# 
   442     018D                     	;# 
   443                           
   444                           	psect	idataBANK0
   445     07FF                     __pidataBANK0:
   446                           
   447                           ;initializer for read_digital_keypad@once
   448     07FF  3401               	retlw	1
   449                           
   450                           	psect	idataBANK1
   451     1524                     __pidataBANK1:
   452                           
   453                           ;initializer for _water_level_arr
   454     1524  343E               	retlw	low (STR_5| (0+32768))
   455     1525  3491               	retlw	high (STR_5| (0+32768))
   456     1526  3443               	retlw	low (STR_6| (0+32768))
   457     1527  3491               	retlw	high (STR_6| (0+32768))
   458     1528  3403               	retlw	low (STR_7| (0+32768))
   459     1529  3491               	retlw	high (STR_7| (0+32768))
   460     152A  3434               	retlw	low (STR_8| (0+32768))
   461     152B  3491               	retlw	high (STR_8| (0+32768))
   462     152C  3447               	retlw	low (STR_9| (0+32768))
   463     152D  3491               	retlw	high (STR_9| (0+32768))
   464                           
   465                           ;initializer for _washing_prog
   466     152E  3423               	retlw	low (STR_1| (0+32768))
   467     152F  3491               	retlw	high (STR_1| (0+32768))
   468     1530  3429               	retlw	low (STR_2| (0+32768))
   469     1531  3491               	retlw	high (STR_2| (0+32768))
   470     1532  34EA               	retlw	low (STR_3| (0+32768))
   471     1533  3490               	retlw	high (STR_3| (0+32768))
   472     1534  340A               	retlw	low (STR_4| (0+32768))
   473     1535  3491               	retlw	high (STR_4| (0+32768))
   474                           
   475                           	psect	nvBANK0
   476     006D                     __pnvBANK0:
   477     006D                     _reset_mode:
   478     006D                     	ds	1
   479     006E                     _operation_mode:
   480     006E                     	ds	1
   481     0008                     _PORTD	set	8
   482     0006                     _PORTB	set	6
   483     0049                     _RE1	set	73
   484     004A                     _RE2	set	74
   485     0091                     _T2CKPS1	set	145
   486     0090                     _T2CKPS0	set	144
   487     0061                     _TMR2IF	set	97
   488     0039                     _RC1	set	57
   489     0030                     _RB0	set	48
   490     003A                     _RC2	set	58
   491     0092                     _TMR2ON	set	146
   492     005F                     _GIE	set	95
   493     005E                     _PEIE	set	94
   494     0088                     _TRISD	set	136
   495     0092                     _PR2	set	146
   496     0086                     _TRISB	set	134
   497     0449                     _TRISE1	set	1097
   498     044A                     _TRISE2	set	1098
   499     0461                     _TMR2IE	set	1121
   500     0439                     _TRISC1	set	1081
   501     043A                     _TRISC2	set	1082
   502                           
   503                           	psect	strings
   504     114B                     __pstrings:
   505     114B                     stringtab:
   506     114B                     __stringtab:
   507                           
   508                           ;	String table - string pointers are 2 bytes each
   509     114B  1BFF               	btfsc	btemp+1,7
   510     114C  2955               	ljmp	stringcode
   511     114D  1383               	bcf	3,7
   512     114E  187F               	btfsc	btemp+1,0
   513     114F  1783               	bsf	3,7
   514     1150  0800               	movf	0,w
   515     1151  0A84               	incf	4,f
   516     1152  1903               	skipnz
   517     1153  0AFF               	incf	btemp+1,f
   518     1154  0008               	return
   519     1155                     stringcode:
   520     1155  087F               	movf	btemp+1,w
   521     1156  397F               	andlw	127
   522     1157  008A               	movwf	10
   523     1158  0804               	movf	4,w
   524     1159  0A84               	incf	4,f
   525     115A  1903               	skipnz
   526     115B  0AFF               	incf	btemp+1,f
   527     115C  0082               	movwf	2
   528     115D                     __stringbase:
   529     115D                     __end_of__stringtab:
   530                           
   531                           	psect	stringtext
   532     1000                     __pstringtext:
   533     1000                     STR_11:
   534     1000  3420               	retlw	32	;' '
   535     1001  3420               	retlw	32	;' '
   536     1002  3420               	retlw	32	;' '
   537     1003  3420               	retlw	32	;' '
   538     1004  3450               	retlw	80	;'P'
   539     1005  346F               	retlw	111	;'o'
   540     1006  3477               	retlw	119	;'w'
   541     1007  3465               	retlw	101	;'e'
   542     1008  3472               	retlw	114	;'r'
   543     1009  3420               	retlw	32	;' '
   544     100A  344F               	retlw	79	;'O'
   545     100B  344E               	retlw	78	;'N'
   546     100C  3420               	retlw	32	;' '
   547     100D  3420               	retlw	32	;' '
   548     100E  3420               	retlw	32	;' '
   549     100F  3420               	retlw	32	;' '
   550     1010  3400               	retlw	0
   551     1011                     STR_16:
   552     1011  3420               	retlw	32	;' '
   553     1012  3420               	retlw	32	;' '
   554     1013  3450               	retlw	80	;'P'
   555     1014  344F               	retlw	79	;'O'
   556     1015  3457               	retlw	87	;'W'
   557     1016  3445               	retlw	69	;'E'
   558     1017  3452               	retlw	82	;'R'
   559     1018  3449               	retlw	73	;'I'
   560     1019  344E               	retlw	78	;'N'
   561     101A  3447               	retlw	71	;'G'
   562     101B  3420               	retlw	32	;' '
   563     101C  344F               	retlw	79	;'O'
   564     101D  344E               	retlw	78	;'N'
   565     101E  3420               	retlw	32	;' '
   566     101F  3420               	retlw	32	;' '
   567     1020  3420               	retlw	32	;' '
   568     1021  3400               	retlw	0
   569     1022                     STR_10:
   570     1022  3420               	retlw	32	;' '
   571     1023  3450               	retlw	80	;'P'
   572     1024  3472               	retlw	114	;'r'
   573     1025  3465               	retlw	101	;'e'
   574     1026  3473               	retlw	115	;'s'
   575     1027  3473               	retlw	115	;'s'
   576     1028  3420               	retlw	32	;' '
   577     1029  344B               	retlw	75	;'K'
   578     102A  3465               	retlw	101	;'e'
   579     102B  3479               	retlw	121	;'y'
   580     102C  3435               	retlw	53	;'5'
   581     102D  3420               	retlw	32	;' '
   582     102E  3454               	retlw	84	;'T'
   583     102F  346F               	retlw	111	;'o'
   584     1030  3420               	retlw	32	;' '
   585     1031  3420               	retlw	32	;' '
   586     1032  3400               	retlw	0
   587     1033                     STR_17:
   588     1033  3420               	retlw	32	;' '
   589     1034  3457               	retlw	87	;'W'
   590     1035  3441               	retlw	65	;'A'
   591     1036  3453               	retlw	83	;'S'
   592     1037  3448               	retlw	72	;'H'
   593     1038  3449               	retlw	73	;'I'
   594     1039  344E               	retlw	78	;'N'
   595     103A  3447               	retlw	71	;'G'
   596     103B  3420               	retlw	32	;' '
   597     103C  344D               	retlw	77	;'M'
   598     103D  3441               	retlw	65	;'A'
   599     103E  3443               	retlw	67	;'C'
   600     103F  3448               	retlw	72	;'H'
   601     1040  3449               	retlw	73	;'I'
   602     1041  344E               	retlw	78	;'N'
   603     1042  3445               	retlw	69	;'E'
   604     1043  3400               	retlw	0
   605     1044                     STR_24:
   606     1044  3435               	retlw	53	;'5'
   607     1045  342D               	retlw	45	;'-'
   608     1046  3453               	retlw	83	;'S'
   609     1047  3454               	retlw	84	;'T'
   610     1048  3441               	retlw	65	;'A'
   611     1049  3452               	retlw	82	;'R'
   612     104A  3454               	retlw	84	;'T'
   613     104B  3420               	retlw	32	;' '
   614     104C  3420               	retlw	32	;' '
   615     104D  3436               	retlw	54	;'6'
   616     104E  342D               	retlw	45	;'-'
   617     104F  3450               	retlw	80	;'P'
   618     1050  3441               	retlw	65	;'A'
   619     1051  3455               	retlw	85	;'U'
   620     1052  3453               	retlw	83	;'S'
   621     1053  3445               	retlw	69	;'E'
   622     1054  3400               	retlw	0
   623     1055                     STR_12:
   624     1055  3420               	retlw	32	;' '
   625     1056  3457               	retlw	87	;'W'
   626     1057  3461               	retlw	97	;'a'
   627     1058  3473               	retlw	115	;'s'
   628     1059  3468               	retlw	104	;'h'
   629     105A  3469               	retlw	105	;'i'
   630     105B  346E               	retlw	110	;'n'
   631     105C  3467               	retlw	103	;'g'
   632     105D  3420               	retlw	32	;' '
   633     105E  344D               	retlw	77	;'M'
   634     105F  3461               	retlw	97	;'a'
   635     1060  3463               	retlw	99	;'c'
   636     1061  3468               	retlw	104	;'h'
   637     1062  3469               	retlw	105	;'i'
   638     1063  346E               	retlw	110	;'n'
   639     1064  3465               	retlw	101	;'e'
   640     1065  3400               	retlw	0
   641     1066                     STR_38:
   642     1066  3450               	retlw	80	;'P'
   643     1067  3472               	retlw	114	;'r'
   644     1068  346F               	retlw	111	;'o'
   645     1069  3467               	retlw	103	;'g'
   646     106A  342E               	retlw	46	;'.'
   647     106B  3420               	retlw	32	;' '
   648     106C  3443               	retlw	67	;'C'
   649     106D  346F               	retlw	111	;'o'
   650     106E  346D               	retlw	109	;'m'
   651     106F  3470               	retlw	112	;'p'
   652     1070  346C               	retlw	108	;'l'
   653     1071  3465               	retlw	101	;'e'
   654     1072  3474               	retlw	116	;'t'
   655     1073  3465               	retlw	101	;'e'
   656     1074  3464               	retlw	100	;'d'
   657     1075  3400               	retlw	0
   658     1076                     STR_18:
   659     1076  3457               	retlw	87	;'W'
   660     1077  3461               	retlw	97	;'a'
   661     1078  3473               	retlw	115	;'s'
   662     1079  3468               	retlw	104	;'h'
   663     107A  3469               	retlw	105	;'i'
   664     107B  346E               	retlw	110	;'n'
   665     107C  3467               	retlw	103	;'g'
   666     107D  3420               	retlw	32	;' '
   667     107E  3450               	retlw	80	;'P'
   668     107F  3472               	retlw	114	;'r'
   669     1080  346F               	retlw	111	;'o'
   670     1081  3467               	retlw	103	;'g'
   671     1082  3472               	retlw	114	;'r'
   672     1083  3461               	retlw	97	;'a'
   673     1084  346D               	retlw	109	;'m'
   674     1085  3400               	retlw	0
   675     1086                     STR_39:
   676     1086  3452               	retlw	82	;'R'
   677     1087  3465               	retlw	101	;'e'
   678     1088  346D               	retlw	109	;'m'
   679     1089  346F               	retlw	111	;'o'
   680     108A  3476               	retlw	118	;'v'
   681     108B  3465               	retlw	101	;'e'
   682     108C  3420               	retlw	32	;' '
   683     108D  3443               	retlw	67	;'C'
   684     108E  346C               	retlw	108	;'l'
   685     108F  346F               	retlw	111	;'o'
   686     1090  3474               	retlw	116	;'t'
   687     1091  3468               	retlw	104	;'h'
   688     1092  3473               	retlw	115	;'s'
   689     1093  3400               	retlw	0
   690     1094                     STR_14:
   691     1094  3420               	retlw	32	;' '
   692     1095  3453               	retlw	83	;'S'
   693     1096  3457               	retlw	87	;'W'
   694     1097  3435               	retlw	53	;'5'
   695     1098  343A               	retlw	58	;':'
   696     1099  3420               	retlw	32	;' '
   697     109A  3453               	retlw	83	;'S'
   698     109B  3454               	retlw	84	;'T'
   699     109C  3441               	retlw	65	;'A'
   700     109D  3452               	retlw	82	;'R'
   701     109E  3454               	retlw	84	;'T'
   702     109F  3420               	retlw	32	;' '
   703     10A0  3400               	retlw	0
   704     10A1                     STR_21:
   705     10A1  3450               	retlw	80	;'P'
   706     10A2  346C               	retlw	108	;'l'
   707     10A3  3465               	retlw	101	;'e'
   708     10A4  3461               	retlw	97	;'a'
   709     10A5  3473               	retlw	115	;'s'
   710     10A6  3465               	retlw	101	;'e'
   711     10A7  3420               	retlw	32	;' '
   712     10A8  3443               	retlw	67	;'C'
   713     10A9  346C               	retlw	108	;'l'
   714     10AA  346F               	retlw	111	;'o'
   715     10AB  3473               	retlw	115	;'s'
   716     10AC  3465               	retlw	101	;'e'
   717     10AD  3400               	retlw	0
   718     10AE                     STR_13:
   719     10AE  3450               	retlw	80	;'P'
   720     10AF  3472               	retlw	114	;'r'
   721     10B0  3465               	retlw	101	;'e'
   722     10B1  3473               	retlw	115	;'s'
   723     10B2  3473               	retlw	115	;'s'
   724     10B3  3420               	retlw	32	;' '
   725     10B4  3453               	retlw	83	;'S'
   726     10B5  3477               	retlw	119	;'w'
   727     10B6  3469               	retlw	105	;'i'
   728     10B7  3474               	retlw	116	;'t'
   729     10B8  3463               	retlw	99	;'c'
   730     10B9  3468               	retlw	104	;'h'
   731     10BA  3400               	retlw	0
   732     10BB                     STR_15:
   733     10BB  3420               	retlw	32	;' '
   734     10BC  3453               	retlw	83	;'S'
   735     10BD  3457               	retlw	87	;'W'
   736     10BE  3436               	retlw	54	;'6'
   737     10BF  343A               	retlw	58	;':'
   738     10C0  3420               	retlw	32	;' '
   739     10C1  3453               	retlw	83	;'S'
   740     10C2  3454               	retlw	84	;'T'
   741     10C3  344F               	retlw	79	;'O'
   742     10C4  3450               	retlw	80	;'P'
   743     10C5  3420               	retlw	32	;' '
   744     10C6  3400               	retlw	0
   745     10C7                     STR_20:
   746     10C7  3444               	retlw	68	;'D'
   747     10C8  344F               	retlw	79	;'O'
   748     10C9  344F               	retlw	79	;'O'
   749     10CA  3452               	retlw	82	;'R'
   750     10CB  3420               	retlw	32	;' '
   751     10CC  343A               	retlw	58	;':'
   752     10CD  3420               	retlw	32	;' '
   753     10CE  344F               	retlw	79	;'O'
   754     10CF  3450               	retlw	80	;'P'
   755     10D0  3445               	retlw	69	;'E'
   756     10D1  344E               	retlw	78	;'N'
   757     10D2  3400               	retlw	0
   758     10D3                     STR_19:
   759     10D3  3457               	retlw	87	;'W'
   760     10D4  3461               	retlw	97	;'a'
   761     10D5  3474               	retlw	116	;'t'
   762     10D6  3465               	retlw	101	;'e'
   763     10D7  3472               	retlw	114	;'r'
   764     10D8  3420               	retlw	32	;' '
   765     10D9  344C               	retlw	76	;'L'
   766     10DA  3465               	retlw	101	;'e'
   767     10DB  3476               	retlw	118	;'v'
   768     10DC  3465               	retlw	101	;'e'
   769     10DD  346C               	retlw	108	;'l'
   770     10DE  3400               	retlw	0
   771     10DF                     STR_22:
   772     10DF  3446               	retlw	70	;'F'
   773     10E0  3475               	retlw	117	;'u'
   774     10E1  346E               	retlw	110	;'n'
   775     10E2  3463               	retlw	99	;'c'
   776     10E3  3474               	retlw	116	;'t'
   777     10E4  3469               	retlw	105	;'i'
   778     10E5  346F               	retlw	111	;'o'
   779     10E6  346E               	retlw	110	;'n'
   780     10E7  3420               	retlw	32	;' '
   781     10E8  342D               	retlw	45	;'-'
   782     10E9  3400               	retlw	0
   783     10EA                     STR_3:
   784     10EA  3444               	retlw	68	;'D'
   785     10EB  3465               	retlw	101	;'e'
   786     10EC  346C               	retlw	108	;'l'
   787     10ED  3469               	retlw	105	;'i'
   788     10EE  3463               	retlw	99	;'c'
   789     10EF  3461               	retlw	97	;'a'
   790     10F0  3474               	retlw	116	;'t'
   791     10F1  3465               	retlw	101	;'e'
   792     10F2  3473               	retlw	115	;'s'
   793     10F3  3400               	retlw	0
   794     10F4                     STR_27:
   795     10F4  3428               	retlw	40	;'('
   796     10F5  344D               	retlw	77	;'M'
   797     10F6  344D               	retlw	77	;'M'
   798     10F7  343A               	retlw	58	;':'
   799     10F8  3453               	retlw	83	;'S'
   800     10F9  3453               	retlw	83	;'S'
   801     10FA  3429               	retlw	41	;')'
   802     10FB  3400               	retlw	0
   803     10FC                     STR_25:
   804     10FC  3450               	retlw	80	;'P'
   805     10FD  3472               	retlw	114	;'r'
   806     10FE  346F               	retlw	111	;'o'
   807     10FF  3467               	retlw	103	;'g'
   808     1100  343A               	retlw	58	;':'
   809     1101  3420               	retlw	32	;' '
   810     1102  3400               	retlw	0
   811     1103                     STR_7:
   812     1103  344D               	retlw	77	;'M'
   813     1104  3465               	retlw	101	;'e'
   814     1105  3464               	retlw	100	;'d'
   815     1106  3469               	retlw	105	;'i'
   816     1107  3475               	retlw	117	;'u'
   817     1108  346D               	retlw	109	;'m'
   818     1109  3400               	retlw	0
   819     110A                     STR_4:
   820     110A  3457               	retlw	87	;'W'
   821     110B  3468               	retlw	104	;'h'
   822     110C  3469               	retlw	105	;'i'
   823     110D  3474               	retlw	116	;'t'
   824     110E  3465               	retlw	101	;'e'
   825     110F  3473               	retlw	115	;'s'
   826     1110  3400               	retlw	0
   827     1111                     STR_33:
   828     1111  3453               	retlw	83	;'S'
   829     1112  3470               	retlw	112	;'p'
   830     1113  3469               	retlw	105	;'i'
   831     1114  346E               	retlw	110	;'n'
   832     1115  3420               	retlw	32	;' '
   833     1116  3400               	retlw	0
   834     1117                     STR_26:
   835     1117  3454               	retlw	84	;'T'
   836     1118  3469               	retlw	105	;'i'
   837     1119  346D               	retlw	109	;'m'
   838     111A  3465               	retlw	101	;'e'
   839     111B  343A               	retlw	58	;':'
   840     111C  3400               	retlw	0
   841     111D                     STR_32:
   842     111D  3452               	retlw	82	;'R'
   843     111E  3469               	retlw	105	;'i'
   844     111F  346E               	retlw	110	;'n'
   845     1120  3473               	retlw	115	;'s'
   846     1121  3465               	retlw	101	;'e'
   847     1122  3400               	retlw	0
   848     1123                     STR_1:
   849     1123  3444               	retlw	68	;'D'
   850     1124  3461               	retlw	97	;'a'
   851     1125  3469               	retlw	105	;'i'
   852     1126  346C               	retlw	108	;'l'
   853     1127  3479               	retlw	121	;'y'
   854     1128  3400               	retlw	0
   855     1129                     STR_2:
   856     1129  3448               	retlw	72	;'H'
   857     112A  3465               	retlw	101	;'e'
   858     112B  3461               	retlw	97	;'a'
   859     112C  3476               	retlw	118	;'v'
   860     112D  3479               	retlw	121	;'y'
   861     112E  3400               	retlw	0
   862     112F                     STR_23:
   863     112F  3454               	retlw	84	;'T'
   864     1130  3449               	retlw	73	;'I'
   865     1131  344D               	retlw	77	;'M'
   866     1132  3445               	retlw	69	;'E'
   867     1133  3400               	retlw	0
   868     1134                     STR_8:
   869     1134  3448               	retlw	72	;'H'
   870     1135  3469               	retlw	105	;'i'
   871     1136  3467               	retlw	103	;'g'
   872     1137  3468               	retlw	104	;'h'
   873     1138  3400               	retlw	0
   874     1139                     STR_31:
   875     1139  3457               	retlw	87	;'W'
   876     113A  3461               	retlw	97	;'a'
   877     113B  3473               	retlw	115	;'s'
   878     113C  3468               	retlw	104	;'h'
   879     113D  3400               	retlw	0
   880     113E                     STR_5:
   881     113E  3441               	retlw	65	;'A'
   882     113F  3475               	retlw	117	;'u'
   883     1140  3474               	retlw	116	;'t'
   884     1141  346F               	retlw	111	;'o'
   885     1142  3400               	retlw	0
   886     1143                     STR_6:
   887     1143  344C               	retlw	76	;'L'
   888     1144  346F               	retlw	111	;'o'
   889     1145  3477               	retlw	119	;'w'
   890     1146  3400               	retlw	0
   891     1147                     STR_9:
   892     1147  344D               	retlw	77	;'M'
   893     1148  3461               	retlw	97	;'a'
   894     1149  3478               	retlw	120	;'x'
   895     114A  3400               	retlw	0
   896     1111                     
   897                           	psect	cinit
   898     000F                     start_initialization:	
   899                           ; #config settings
   900                           
   901     000F                     __initialization:
   902                           
   903                           ; Initialize objects allocated to BANK1
   904     000F  1383               	bcf	3,7	;select IRP bank0
   905     0010  30B2               	movlw	low (__pdataBANK1+18)
   906     0011  00FD               	movwf	btemp+-1
   907     0012  3015               	movlw	high __pidataBANK1
   908     0013  00FE               	movwf	btemp
   909     0014  3024               	movlw	low __pidataBANK1
   910     0015  00FF               	movwf	btemp+1
   911     0016  30A0               	movlw	low __pdataBANK1
   912     0017  0084               	movwf	4
   913     0018  160A  118A  253A  120A  118A  	fcall	init_ram0
   914                           
   915                           ; Initialize objects allocated to BANK0
   916     001D  120A  118A  27FF  120A  118A  	fcall	__pidataBANK0	;fetch initializer
   917     0022  00EF               	movwf	__pdataBANK0& (0+127)
   918                           
   919                           ; Clear objects allocated to BANK1
   920     0023  1683               	bsf	3,5	;RP0=1, select bank1
   921     0024  1303               	bcf	3,6	;RP1=0, select bank1
   922     0025  01B2               	clrf	__pbssBANK1& (0+127)
   923     0026  01B3               	clrf	(__pbssBANK1+1)& (0+127)
   924     0027  01B4               	clrf	(__pbssBANK1+2)& (0+127)
   925     0028  01B5               	clrf	(__pbssBANK1+3)& (0+127)
   926                           
   927                           ; Clear objects allocated to BANK0
   928     0029  1283               	bcf	3,5	;RP0=0, select bank0
   929     002A  1303               	bcf	3,6	;RP1=0, select bank0
   930     002B  01E1               	clrf	__pbssBANK0& (0+127)
   931     002C  01E2               	clrf	(__pbssBANK0+1)& (0+127)
   932     002D  01E3               	clrf	(__pbssBANK0+2)& (0+127)
   933     002E  01E4               	clrf	(__pbssBANK0+3)& (0+127)
   934     002F  01E5               	clrf	(__pbssBANK0+4)& (0+127)
   935     0030  01E6               	clrf	(__pbssBANK0+5)& (0+127)
   936     0031  01E7               	clrf	(__pbssBANK0+6)& (0+127)
   937     0032  01E8               	clrf	(__pbssBANK0+7)& (0+127)
   938     0033  01E9               	clrf	(__pbssBANK0+8)& (0+127)
   939     0034  01EA               	clrf	(__pbssBANK0+9)& (0+127)
   940     0035  01EB               	clrf	(__pbssBANK0+10)& (0+127)
   941     0036  01EC               	clrf	(__pbssBANK0+11)& (0+127)
   942                           
   943                           ; Clear objects allocated to COMMON
   944     0037  01FA               	clrf	__pbssCOMMON& (0+127)
   945     0038  01FB               	clrf	(__pbssCOMMON+1)& (0+127)
   946     0039                     end_of_initialization:	
   947                           ;End of C runtime variable initialization code
   948                           
   949     0039                     __end_of__initialization:
   950     0039  0183               	clrf	3
   951     003A  120A  158A  2C99   	ljmp	_main	;jump to C main() function
   952                           
   953                           	psect	bssCOMMON
   954     007A                     __pbssCOMMON:
   955     007A                     _water_level_index:
   956     007A                     	ds	1
   957     007B                     _program_no:
   958     007B                     	ds	1
   959                           
   960                           	psect	bssBANK0
   961     0061                     __pbssBANK0:
   962     0061                     run_program@time:
   963     0061                     	ds	2
   964     0063                     run_program@total_time:
   965     0063                     	ds	2
   966     0065                     _rinse_time:
   967     0065                     	ds	2
   968     0067                     _wash_time:
   969     0067                     	ds	2
   970     0069                     read_digital_keypad@longpress:
   971     0069                     	ds	1
   972     006A                     read_digital_keypad@pre_key:
   973     006A                     	ds	1
   974     006B                     _min:
   975     006B                     	ds	1
   976     006C                     _sec:
   977     006C                     	ds	1
   978                           
   979                           	psect	dataBANK0
   980     006F                     __pdataBANK0:
   981     006F                     read_digital_keypad@once:
   982     006F                     	ds	1
   983                           
   984                           	psect	bssBANK1
   985     00B2                     __pbssBANK1:
   986     00B2                     isr@count:
   987     00B2                     	ds	2
   988     00B4                     _spin_time:
   989     00B4                     	ds	2
   990                           
   991                           	psect	dataBANK1
   992     00A0                     __pdataBANK1:
   993     00A0                     _water_level_arr:
   994     00A0                     	ds	10
   995     00AA                     _washing_prog:
   996     00AA                     	ds	8
   997                           
   998                           	psect	inittext
   999     1536                     init_fetch0:	
  1000                           ;	Called with low address in FSR and high address in W
  1001                           
  1002     1536  087E               	movf	btemp,w
  1003     1537  008A               	movwf	10
  1004     1538  087F               	movf	btemp+1,w
  1005     1539  0082               	movwf	2
  1006     153A                     init_ram0:	
  1007                           ;Called with:
  1008                           ;	high address of idata address in btemp 
  1009                           ;	low address of idata address in btemp+1 
  1010                           ;	low address of data in FSR
  1011                           ;	high address + 1 of data in btemp-1
  1012                           
  1013     153A  160A  118A  2536  160A  118A  	fcall	init_fetch0
  1014     153F  0080               	movwf	0
  1015     1540  0A84               	incf	4,f
  1016     1541  0804               	movf	4,w
  1017     1542  067D               	xorwf	btemp+-1,w
  1018     1543  1903               	btfsc	3,2
  1019     1544  3400               	retlw	0
  1020     1545  0AFF               	incf	btemp+1,f
  1021     1546  1903               	btfsc	3,2
  1022     1547  0AFE               	incf	btemp,f
  1023     1548  2D3A               	goto	init_ram0
  1024                           
  1025                           	psect	cstackCOMMON
  1026     0070                     __pcstackCOMMON:
  1027     0070                     ?_init_clcd:
  1028     0070                     ?_init_digital_keypad:	
  1029                           ; 1 bytes @ 0x0
  1030                           
  1031     0070                     ?_init_timer2:	
  1032                           ; 1 bytes @ 0x0
  1033                           
  1034     0070                     ?_read_digital_keypad:	
  1035                           ; 1 bytes @ 0x0
  1036                           
  1037     0070                     ?_clear_screen:	
  1038                           ; 1 bytes @ 0x0
  1039                           
  1040     0070                     ?_power_on_screen:	
  1041                           ; 1 bytes @ 0x0
  1042                           
  1043     0070                     ?_set_time_for_program:	
  1044                           ; 1 bytes @ 0x0
  1045                           
  1046     0070                     ?_washing_program_display:	
  1047                           ; 1 bytes @ 0x0
  1048                           
  1049     0070                     ?_water_level_display:	
  1050                           ; 1 bytes @ 0x0
  1051                           
  1052     0070                     ?_run_program:	
  1053                           ; 1 bytes @ 0x0
  1054                           
  1055     0070                     ?_init_config:	
  1056                           ; 1 bytes @ 0x0
  1057                           
  1058     0070                     ?_main:	
  1059                           ; 1 bytes @ 0x0
  1060                           
  1061     0070                     ?_door_status_check:	
  1062                           ; 1 bytes @ 0x0
  1063                           
  1064     0070                     ?_isr:	
  1065                           ; 1 bytes @ 0x0
  1066                           
  1067     0070                     ??_isr:	
  1068                           ; 1 bytes @ 0x0
  1069                           
  1070     0070                     ?_init_display_controller:	
  1071                           ; 1 bytes @ 0x0
  1072                           
  1073                           
  1074                           ; 1 bytes @ 0x0
  1075     0070                     	ds	2
  1076     0072                     ??_init_digital_keypad:
  1077     0072                     ??_init_timer2:	
  1078                           ; 1 bytes @ 0x2
  1079                           
  1080     0072                     ??_read_digital_keypad:	
  1081                           ; 1 bytes @ 0x2
  1082                           
  1083     0072                     ??_set_time_for_program:	
  1084                           ; 1 bytes @ 0x2
  1085                           
  1086     0072                     ?_clcd_write:	
  1087                           ; 1 bytes @ 0x2
  1088                           
  1089     0072                     ?__Umul8_16:	
  1090                           ; 1 bytes @ 0x2
  1091                           
  1092     0072                     ?___wmul:	
  1093                           ; 2 bytes @ 0x2
  1094                           
  1095     0072                     ?___awdiv:	
  1096                           ; 2 bytes @ 0x2
  1097                           
  1098     0072                     ?___awmod:	
  1099                           ; 2 bytes @ 0x2
  1100                           
  1101     0072                     ?___fladd:	
  1102                           ; 2 bytes @ 0x2
  1103                           
  1104     0072                     ?___xxtofl:	
  1105                           ; 4 bytes @ 0x2
  1106                           
  1107     0072                     clcd_write@mode:	
  1108                           ; 4 bytes @ 0x2
  1109                           
  1110     0072                     __Umul8_16@multiplicand:	
  1111                           ; 1 bytes @ 0x2
  1112                           
  1113     0072                     ___wmul@multiplier:	
  1114                           ; 1 bytes @ 0x2
  1115                           
  1116     0072                     ___awdiv@divisor:	
  1117                           ; 2 bytes @ 0x2
  1118                           
  1119     0072                     ___awmod@divisor:	
  1120                           ; 2 bytes @ 0x2
  1121                           
  1122     0072                     ___fladd@b:	
  1123                           ; 2 bytes @ 0x2
  1124                           
  1125     0072                     ___xxtofl@val:	
  1126                           ; 4 bytes @ 0x2
  1127                           
  1128                           
  1129                           ; 4 bytes @ 0x2
  1130     0072                     	ds	1
  1131     0073                     ??_clcd_write:
  1132     0073                     read_digital_keypad@mode:	
  1133                           ; 1 bytes @ 0x3
  1134                           
  1135                           
  1136                           ; 1 bytes @ 0x3
  1137     0073                     	ds	1
  1138     0074                     ??__Umul8_16:
  1139     0074                     ___wmul@multiplicand:	
  1140                           ; 1 bytes @ 0x4
  1141                           
  1142     0074                     ___awdiv@dividend:	
  1143                           ; 2 bytes @ 0x4
  1144                           
  1145     0074                     ___awmod@dividend:	
  1146                           ; 2 bytes @ 0x4
  1147                           
  1148                           
  1149                           ; 2 bytes @ 0x4
  1150     0074                     	ds	1
  1151     0075                     clcd_write@byte:
  1152                           
  1153                           ; 1 bytes @ 0x5
  1154     0075                     	ds	1
  1155     0076                     ?_clcd_print:
  1156     0076                     ??_clear_screen:	
  1157                           ; 1 bytes @ 0x6
  1158                           
  1159     0076                     ??_init_display_controller:	
  1160                           ; 1 bytes @ 0x6
  1161                           
  1162     0076                     ??___wmul:	
  1163                           ; 1 bytes @ 0x6
  1164                           
  1165     0076                     ??___awdiv:	
  1166                           ; 1 bytes @ 0x6
  1167                           
  1168     0076                     ??___awmod:	
  1169                           ; 1 bytes @ 0x6
  1170                           
  1171     0076                     ??___xxtofl:	
  1172                           ; 1 bytes @ 0x6
  1173                           
  1174     0076                     ___awdiv@counter:	
  1175                           ; 1 bytes @ 0x6
  1176                           
  1177     0076                     ___awmod@counter:	
  1178                           ; 1 bytes @ 0x6
  1179                           
  1180     0076                     clcd_print@str:	
  1181                           ; 1 bytes @ 0x6
  1182                           
  1183     0076                     ___wmul@product:	
  1184                           ; 2 bytes @ 0x6
  1185                           
  1186     0076                     ___fladd@a:	
  1187                           ; 2 bytes @ 0x6
  1188                           
  1189                           
  1190                           ; 4 bytes @ 0x6
  1191     0076                     	ds	1
  1192     0077                     ___awdiv@sign:
  1193     0077                     ___awmod@sign:	
  1194                           ; 1 bytes @ 0x7
  1195                           
  1196                           
  1197                           ; 1 bytes @ 0x7
  1198     0077                     	ds	1
  1199     0078                     ??_init_clcd:
  1200     0078                     ??_init_config:	
  1201                           ; 1 bytes @ 0x8
  1202                           
  1203     0078                     clcd_print@addr:	
  1204                           ; 1 bytes @ 0x8
  1205                           
  1206     0078                     ___awdiv@quotient:	
  1207                           ; 1 bytes @ 0x8
  1208                           
  1209                           
  1210                           ; 2 bytes @ 0x8
  1211     0078                     	ds	1
  1212     0079                     ??_clcd_print:
  1213     0079                     ??_door_status_check:	
  1214                           ; 1 bytes @ 0x9
  1215                           
  1216                           
  1217                           ; 1 bytes @ 0x9
  1218     0079                     	ds	1
  1219     007A                     ??_clcd_putch:
  1220     007A                     ??_main:	
  1221                           ; 1 bytes @ 0xA
  1222                           
  1223     007A                     ??___flsub:	
  1224                           ; 1 bytes @ 0xA
  1225                           
  1226                           
  1227                           	psect	cstackBANK0
  1228     0020                     __pcstackBANK0:	
  1229                           ; 1 bytes @ 0xA
  1230                           
  1231     0020                     ?_clcd_putch:
  1232     0020                     ??___fladd:	
  1233                           ; 1 bytes @ 0x0
  1234                           
  1235     0020                     clcd_putch@addr:	
  1236                           ; 1 bytes @ 0x0
  1237                           
  1238     0020                     ___xxtofl@sign:	
  1239                           ; 1 bytes @ 0x0
  1240                           
  1241     0020                     __Umul8_16@product:	
  1242                           ; 1 bytes @ 0x0
  1243                           
  1244                           
  1245                           ; 2 bytes @ 0x0
  1246     0020                     	ds	1
  1247     0021                     clcd_putch@data:
  1248     0021                     ___xxtofl@exp:	
  1249                           ; 1 bytes @ 0x1
  1250                           
  1251                           
  1252                           ; 1 bytes @ 0x1
  1253     0021                     	ds	1
  1254     0022                     ??_power_on_screen:
  1255     0022                     ??_washing_program_display:	
  1256                           ; 1 bytes @ 0x2
  1257                           
  1258     0022                     ??_water_level_display:	
  1259                           ; 1 bytes @ 0x2
  1260                           
  1261     0022                     __Umul8_16@word_mpld:	
  1262                           ; 1 bytes @ 0x2
  1263                           
  1264     0022                     ___xxtofl@arg:	
  1265                           ; 2 bytes @ 0x2
  1266                           
  1267                           
  1268                           ; 4 bytes @ 0x2
  1269     0022                     	ds	2
  1270     0024                     washing_program_display@key:
  1271     0024                     water_level_display@key:	
  1272                           ; 1 bytes @ 0x4
  1273                           
  1274     0024                     __Umul8_16@multiplier:	
  1275                           ; 1 bytes @ 0x4
  1276                           
  1277                           
  1278                           ; 1 bytes @ 0x4
  1279     0024                     	ds	1
  1280     0025                     power_on_screen@i:
  1281                           
  1282                           ; 1 bytes @ 0x5
  1283     0025                     	ds	1
  1284     0026                     ?___flmul:
  1285     0026                     power_on_screen@i_140:	
  1286                           ; 4 bytes @ 0x6
  1287                           
  1288     0026                     ___flmul@b:	
  1289                           ; 1 bytes @ 0x6
  1290                           
  1291                           
  1292                           ; 4 bytes @ 0x6
  1293     0026                     	ds	2
  1294     0028                     ___fladd@signs:
  1295                           
  1296                           ; 1 bytes @ 0x8
  1297     0028                     	ds	1
  1298     0029                     ___fladd@aexp:
  1299                           
  1300                           ; 1 bytes @ 0x9
  1301     0029                     	ds	1
  1302     002A                     ___fladd@bexp:
  1303     002A                     ___flmul@a:	
  1304                           ; 1 bytes @ 0xA
  1305                           
  1306                           
  1307                           ; 4 bytes @ 0xA
  1308     002A                     	ds	1
  1309     002B                     ___fladd@grs:
  1310                           
  1311                           ; 1 bytes @ 0xB
  1312     002B                     	ds	3
  1313     002E                     ??___flmul:
  1314                           
  1315                           ; 1 bytes @ 0xE
  1316     002E                     	ds	5
  1317     0033                     ___flmul@sign:
  1318                           
  1319                           ; 1 bytes @ 0x13
  1320     0033                     	ds	1
  1321     0034                     ___flmul@aexp:
  1322                           
  1323                           ; 1 bytes @ 0x14
  1324     0034                     	ds	1
  1325     0035                     ___flmul@grs:
  1326                           
  1327                           ; 4 bytes @ 0x15
  1328     0035                     	ds	4
  1329     0039                     ___flmul@bexp:
  1330                           
  1331                           ; 1 bytes @ 0x19
  1332     0039                     	ds	1
  1333     003A                     ___flmul@prod:
  1334                           
  1335                           ; 4 bytes @ 0x1A
  1336     003A                     	ds	4
  1337     003E                     ___flmul@temp:
  1338                           
  1339                           ; 2 bytes @ 0x1E
  1340     003E                     	ds	2
  1341     0040                     ?___fltol:
  1342     0040                     ?___flsub:	
  1343                           ; 4 bytes @ 0x20
  1344                           
  1345     0040                     ___fltol@f1:	
  1346                           ; 4 bytes @ 0x20
  1347                           
  1348     0040                     ___flsub@a:	
  1349                           ; 4 bytes @ 0x20
  1350                           
  1351                           
  1352                           ; 4 bytes @ 0x20
  1353     0040                     	ds	4
  1354     0044                     ??___fltol:
  1355     0044                     ___flsub@b:	
  1356                           ; 1 bytes @ 0x24
  1357                           
  1358                           
  1359                           ; 4 bytes @ 0x24
  1360     0044                     	ds	4
  1361     0048                     ?___flge:
  1362     0048                     ___fltol@sign1:	
  1363                           ; 1 bit 
  1364                           
  1365     0048                     ___flge@ff1:	
  1366                           ; 1 bytes @ 0x28
  1367                           
  1368                           
  1369                           ; 4 bytes @ 0x28
  1370     0048                     	ds	1
  1371     0049                     ___fltol@exp1:
  1372                           
  1373                           ; 1 bytes @ 0x29
  1374     0049                     	ds	3
  1375     004C                     ___flge@ff2:
  1376                           
  1377                           ; 4 bytes @ 0x2C
  1378     004C                     	ds	4
  1379     0050                     ??___flge:
  1380                           
  1381                           ; 1 bytes @ 0x30
  1382     0050                     	ds	4
  1383     0054                     ??_run_program:
  1384                           
  1385                           ; 1 bytes @ 0x34
  1386     0054                     	ds	7
  1387     005B                     run_program@key:
  1388                           
  1389                           ; 1 bytes @ 0x3B
  1390     005B                     	ds	1
  1391     005C                     main@j:
  1392                           
  1393                           ; 2 bytes @ 0x3C
  1394     005C                     	ds	2
  1395     005E                     main@j_131:
  1396                           
  1397                           ; 2 bytes @ 0x3E
  1398     005E                     	ds	2
  1399     0060                     main@key:
  1400                           
  1401                           ; 1 bytes @ 0x40
  1402     0060                     	ds	1
  1403                           
  1404                           	psect	maintext
  1405     0C99                     __pmaintext:	
  1406 ;;
  1407 ;;Main: autosize = 0, tempsize = 0, incstack = 0, save=0
  1408 ;;
  1409 ;; *************** function _main *****************
  1410 ;; Defined at:
  1411 ;;		line 35 in file "main.c"
  1412 ;; Parameters:    Size  Location     Type
  1413 ;;		None
  1414 ;; Auto vars:     Size  Location     Type
  1415 ;;  j               2   62[BANK0 ] int 
  1416 ;;  j               2   60[BANK0 ] int 
  1417 ;;  key             1   64[BANK0 ] unsigned char 
  1418 ;;  key_copy        1    0        unsigned char 
  1419 ;; Return value:  Size  Location     Type
  1420 ;;                  1    wreg      void 
  1421 ;; Registers used:
  1422 ;;		wreg, fsr0l, fsr0h, status,2, status,0, btemp+1, pclath, cstack
  1423 ;; Tracked objects:
  1424 ;;		On entry : B00/0
  1425 ;;		On exit  : 0/0
  1426 ;;		Unchanged: 0/0
  1427 ;; Data sizes:     COMMON   BANK0   BANK1   BANK3   BANK2
  1428 ;;      Params:         0       0       0       0       0
  1429 ;;      Locals:         0       5       0       0       0
  1430 ;;      Temps:          0       0       0       0       0
  1431 ;;      Totals:         0       5       0       0       0
  1432 ;;Total ram usage:        5 bytes
  1433 ;; Hardware stack levels required when called: 5
  1434 ;; This function calls:
  1435 ;;		_clcd_print
  1436 ;;		_clear_screen
  1437 ;;		_init_config
  1438 ;;		_power_on_screen
  1439 ;;		_read_digital_keypad
  1440 ;;		_run_program
  1441 ;;		_set_time_for_program
  1442 ;;		_washing_program_display
  1443 ;;		_water_level_display
  1444 ;; This function is called by:
  1445 ;;		Startup code after reset
  1446 ;; This function uses a non-reentrant model
  1447 ;;
  1448                           
  1449     0C99                     _main:	
  1450                           ;psect for function _main
  1451                           
  1452     0C99                     l3501:	
  1453                           ;incstack = 0
  1454                           ; Regs used in _main: [wreg-fsr0h+status,2+status,0+btemp+1+pclath+cstack]
  1455                           
  1456     0C99                     l3503:
  1457                           
  1458                           ;main.c: 37:     operation_mode = 0X01;
  1459     0C99  1283               	bcf	3,5	;RP0=0, select bank0
  1460     0C9A  1303               	bcf	3,6	;RP1=0, select bank0
  1461     0C9B  01EE               	clrf	_operation_mode
  1462     0C9C  0AEE               	incf	_operation_mode,f
  1463                           
  1464                           ;main.c: 38:     reset_mode = 0X10;
  1465     0C9D  3010               	movlw	16
  1466     0C9E  00ED               	movwf	_reset_mode
  1467     0C9F                     l3505:
  1468                           
  1469                           ;main.c: 39:     init_config();
  1470     0C9F  120A  118A  27E3  120A  158A  	fcall	_init_config
  1471     0CA4                     l3507:
  1472                           
  1473                           ;main.c: 41:     clcd_print(" Press Key5 To  ", (0x80 + 0));
  1474     0CA4  3022               	movlw	low (STR_10| (0+32768))
  1475     0CA5  00F6               	movwf	clcd_print@str
  1476     0CA6  3090               	movlw	high (STR_10| (0+32768))
  1477     0CA7  00F7               	movwf	clcd_print@str+1
  1478     0CA8  3080               	movlw	128
  1479     0CA9  00F8               	movwf	clcd_print@addr
  1480     0CAA  160A  118A  25DB  120A  158A  	fcall	_clcd_print
  1481     0CAF                     l3509:
  1482                           
  1483                           ;main.c: 42:     clcd_print("    Power ON    ", (0xC0 + 0));
  1484     0CAF  3000               	movlw	low (STR_11| (0+32768))
  1485     0CB0  00F6               	movwf	clcd_print@str
  1486     0CB1  3090               	movlw	high (STR_11| (0+32768))
  1487     0CB2  00F7               	movwf	clcd_print@str+1
  1488     0CB3  30C0               	movlw	192
  1489     0CB4  00F8               	movwf	clcd_print@addr
  1490     0CB5  160A  118A  25DB  120A  158A  	fcall	_clcd_print
  1491     0CBA                     l3511:
  1492                           
  1493                           ;main.c: 43:     clcd_print(" Washing Machine", (0x90 + 0));
  1494     0CBA  3055               	movlw	low (STR_12| (0+32768))
  1495     0CBB  00F6               	movwf	clcd_print@str
  1496     0CBC  3090               	movlw	high (STR_12| (0+32768))
  1497     0CBD  00F7               	movwf	clcd_print@str+1
  1498     0CBE  3090               	movlw	144
  1499     0CBF  00F8               	movwf	clcd_print@addr
  1500     0CC0  160A  118A  25DB  120A  158A  	fcall	_clcd_print
  1501                           
  1502                           ;main.c: 45:    while( read_digital_keypad(1) != 0x2F)
  1503     0CC5  2CDA               	goto	l3517
  1504     0CC6                     l3513:
  1505                           
  1506                           ;main.c: 46:    {;main.c: 47:        for(int j=3000; j--; );
  1507     0CC6  30B8               	movlw	184
  1508     0CC7  1283               	bcf	3,5	;RP0=0, select bank0
  1509     0CC8  1303               	bcf	3,6	;RP1=0, select bank0
  1510     0CC9  00DC               	movwf	main@j
  1511     0CCA  300B               	movlw	11
  1512     0CCB  00DD               	movwf	main@j+1
  1513     0CCC                     l3515:
  1514     0CCC  30FF               	movlw	255
  1515     0CCD  07DC               	addwf	main@j,f
  1516     0CCE  1803               	skipnc
  1517     0CCF  0ADD               	incf	main@j+1,f
  1518     0CD0  30FF               	movlw	255
  1519     0CD1  07DD               	addwf	main@j+1,f
  1520     0CD2  0A5C               	incf	main@j,w
  1521     0CD3  1D03               	skipz
  1522     0CD4  2CD9               	goto	u4601
  1523     0CD5  0A5D               	incf	main@j+1,w
  1524     0CD6  1D03               	btfss	3,2
  1525     0CD7  2CD9               	goto	u4601
  1526     0CD8  2CDA               	goto	u4600
  1527     0CD9                     u4601:
  1528     0CD9  2CCC               	goto	l3515
  1529     0CDA                     u4600:
  1530     0CDA                     l3517:
  1531                           
  1532                           ;main.c: 45:    while( read_digital_keypad(1) != 0x2F)
  1533     0CDA  3001               	movlw	1
  1534     0CDB  160A  118A  273A  120A  158A  	fcall	_read_digital_keypad
  1535     0CE0  3A2F               	xorlw	47
  1536     0CE1  1D03               	skipz
  1537     0CE2  2CE4               	goto	u4611
  1538     0CE3  2CE5               	goto	u4610
  1539     0CE4                     u4611:
  1540     0CE4  2CC6               	goto	l3513
  1541     0CE5                     u4610:
  1542     0CE5                     l3519:
  1543                           
  1544                           ;main.c: 51:     clear_screen();
  1545     0CE5  160A  118A  2517  120A  158A  	fcall	_clear_screen
  1546     0CEA                     l3521:
  1547                           
  1548                           ;main.c: 54:    power_on_screen();
  1549     0CEA  120A  158A  201E  120A  158A  	fcall	_power_on_screen
  1550     0CEF                     l3523:
  1551                           
  1552                           ;main.c: 58:         key = read_digital_keypad(1);
  1553     0CEF  3001               	movlw	1
  1554     0CF0  160A  118A  273A  120A  158A  	fcall	_read_digital_keypad
  1555     0CF5  1283               	bcf	3,5	;RP0=0, select bank0
  1556     0CF6  1303               	bcf	3,6	;RP1=0, select bank0
  1557     0CF7  00E0               	movwf	main@key
  1558     0CF8                     l3525:
  1559                           
  1560                           ;main.c: 59:          for(int j=3000; j--; );
  1561     0CF8  30B8               	movlw	184
  1562     0CF9  00DE               	movwf	main@j_131
  1563     0CFA  300B               	movlw	11
  1564     0CFB  00DF               	movwf	main@j_131+1
  1565     0CFC                     l3527:
  1566     0CFC  30FF               	movlw	255
  1567     0CFD  07DE               	addwf	main@j_131,f
  1568     0CFE  1803               	skipnc
  1569     0CFF  0ADF               	incf	main@j_131+1,f
  1570     0D00  30FF               	movlw	255
  1571     0D01  07DF               	addwf	main@j_131+1,f
  1572     0D02  0A5E               	incf	main@j_131,w
  1573     0D03  1D03               	skipz
  1574     0D04  2D09               	goto	u4621
  1575     0D05  0A5F               	incf	main@j_131+1,w
  1576     0D06  1D03               	btfss	3,2
  1577     0D07  2D09               	goto	u4621
  1578     0D08  2D0A               	goto	u4620
  1579     0D09                     u4621:
  1580     0D09  2CFC               	goto	l3527
  1581     0D0A                     u4620:
  1582     0D0A                     l3529:
  1583                           
  1584                           ;main.c: 61:          if(key == 0xB7 && operation_mode == 0X01)
  1585     0D0A  30B7               	movlw	183
  1586     0D0B  0660               	xorwf	main@key,w
  1587     0D0C  1D03               	btfss	3,2
  1588     0D0D  2D0F               	goto	u4631
  1589     0D0E  2D10               	goto	u4630
  1590     0D0F                     u4631:
  1591     0D0F  2D1A               	goto	l3535
  1592     0D10                     u4630:
  1593     0D10                     l3531:
  1594     0D10  036E               	decf	_operation_mode,w
  1595     0D11  1D03               	btfss	3,2
  1596     0D12  2D14               	goto	u4641
  1597     0D13  2D15               	goto	u4640
  1598     0D14                     u4641:
  1599     0D14  2D1A               	goto	l3535
  1600     0D15                     u4640:
  1601     0D15                     l3533:
  1602                           
  1603                           ;main.c: 62:         {;main.c: 64:             operation_mode = 0X02;
  1604     0D15  3002               	movlw	2
  1605     0D16  00EE               	movwf	_operation_mode
  1606                           
  1607                           ;main.c: 65:             reset_mode = 0x11;
  1608     0D17  3011               	movlw	17
  1609     0D18  00ED               	movwf	_reset_mode
  1610                           
  1611                           ;main.c: 66:         }
  1612     0D19  2D93               	goto	l3579
  1613     0D1A                     l3535:
  1614     0D1A  30B7               	movlw	183
  1615     0D1B  0660               	xorwf	main@key,w
  1616     0D1C  1D03               	btfss	3,2
  1617     0D1D  2D1F               	goto	u4651
  1618     0D1E  2D20               	goto	u4650
  1619     0D1F                     u4651:
  1620     0D1F  2D56               	goto	l3551
  1621     0D20                     u4650:
  1622     0D20                     l3537:
  1623     0D20  3002               	movlw	2
  1624     0D21  066E               	xorwf	_operation_mode,w
  1625     0D22  1D03               	btfss	3,2
  1626     0D23  2D25               	goto	u4661
  1627     0D24  2D26               	goto	u4660
  1628     0D25                     u4661:
  1629     0D25  2D56               	goto	l3551
  1630     0D26                     u4660:
  1631     0D26                     l3539:
  1632                           
  1633                           ;main.c: 68:         {;main.c: 70:             set_time_for_program();
  1634     0D26  120A  158A  239E  120A  158A  	fcall	_set_time_for_program
  1635     0D2B                     l3541:
  1636                           
  1637                           ;main.c: 72:             clear_screen();
  1638     0D2B  160A  118A  2517  120A  158A  	fcall	_clear_screen
  1639     0D30                     l3543:
  1640                           
  1641                           ;main.c: 74:             clcd_print("Press Switch", (0x80 + 0));
  1642     0D30  30AE               	movlw	low (STR_13| (0+32768))
  1643     0D31  00F6               	movwf	clcd_print@str
  1644     0D32  3090               	movlw	high (STR_13| (0+32768))
  1645     0D33  00F7               	movwf	clcd_print@str+1
  1646     0D34  3080               	movlw	128
  1647     0D35  00F8               	movwf	clcd_print@addr
  1648     0D36  160A  118A  25DB  120A  158A  	fcall	_clcd_print
  1649     0D3B                     l3545:
  1650                           
  1651                           ;main.c: 75:             clcd_print(" SW5: START ", (0xC0 + 0));
  1652     0D3B  3094               	movlw	low (STR_14| (0+32768))
  1653     0D3C  00F6               	movwf	clcd_print@str
  1654     0D3D  3090               	movlw	high (STR_14| (0+32768))
  1655     0D3E  00F7               	movwf	clcd_print@str+1
  1656     0D3F  30C0               	movlw	192
  1657     0D40  00F8               	movwf	clcd_print@addr
  1658     0D41  160A  118A  25DB  120A  158A  	fcall	_clcd_print
  1659     0D46                     l3547:
  1660                           
  1661                           ;main.c: 76:             clcd_print(" SW6: STOP ", (0x90 + 0));
  1662     0D46  30BB               	movlw	low (STR_15| (0+32768))
  1663     0D47  00F6               	movwf	clcd_print@str
  1664     0D48  3090               	movlw	high (STR_15| (0+32768))
  1665     0D49  00F7               	movwf	clcd_print@str+1
  1666     0D4A  3090               	movlw	144
  1667     0D4B  00F8               	movwf	clcd_print@addr
  1668     0D4C  160A  118A  25DB  120A  158A  	fcall	_clcd_print
  1669     0D51                     l3549:
  1670                           
  1671                           ;main.c: 77:             operation_mode = 0X03;
  1672     0D51  3003               	movlw	3
  1673     0D52  1283               	bcf	3,5	;RP0=0, select bank0
  1674     0D53  1303               	bcf	3,6	;RP1=0, select bank0
  1675     0D54  00EE               	movwf	_operation_mode
  1676                           
  1677                           ;main.c: 78:         }
  1678     0D55  2D93               	goto	l3579
  1679     0D56                     l3551:
  1680     0D56  302F               	movlw	47
  1681     0D57  0660               	xorwf	main@key,w
  1682     0D58  1D03               	btfss	3,2
  1683     0D59  2D5B               	goto	u4671
  1684     0D5A  2D5C               	goto	u4670
  1685     0D5B                     u4671:
  1686     0D5B  2D67               	goto	l85
  1687     0D5C                     u4670:
  1688     0D5C                     l3553:
  1689     0D5C  3005               	movlw	5
  1690     0D5D  066E               	xorwf	_operation_mode,w
  1691     0D5E  1D03               	btfss	3,2
  1692     0D5F  2D61               	goto	u4681
  1693     0D60  2D62               	goto	u4680
  1694     0D61                     u4681:
  1695     0D61  2D67               	goto	l85
  1696     0D62                     u4680:
  1697     0D62                     l3555:
  1698                           
  1699                           ;main.c: 80:         {;main.c: 81:             TMR2ON = 1;
  1700     0D62  1512               	bsf	18,2	;volatile
  1701                           
  1702                           ;main.c: 82:             RC2 = 1;
  1703     0D63  1507               	bsf	7,2	;volatile
  1704     0D64                     l3557:
  1705                           
  1706                           ;main.c: 83:             operation_mode = 0X04;
  1707     0D64  3004               	movlw	4
  1708     0D65  00EE               	movwf	_operation_mode
  1709     0D66  2D93               	goto	l3579
  1710     0D67                     l85:
  1711                           
  1712                           ;main.c: 86:         switch(operation_mode)
  1713     0D67  2D93               	goto	l3579
  1714     0D68                     l3559:
  1715                           
  1716                           ;main.c: 90:                  washing_program_display(key);
  1717     0D68  0860               	movf	main@key,w
  1718     0D69  120A  158A  21B2  120A  158A  	fcall	_washing_program_display
  1719                           
  1720                           ;main.c: 91:                  break;
  1721     0D6E  2DA1               	goto	l3581
  1722     0D6F                     l3561:
  1723                           
  1724                           ;main.c: 93:                 water_level_display(key);
  1725     0D6F  0860               	movf	main@key,w
  1726     0D70  120A  158A  22A8  120A  158A  	fcall	_water_level_display
  1727                           
  1728                           ;main.c: 94:                 break;
  1729     0D75  2DA1               	goto	l3581
  1730     0D76                     l3563:
  1731                           
  1732                           ;main.c: 96:                 if(key == 0x2F)
  1733     0D76  302F               	movlw	47
  1734     0D77  0660               	xorwf	main@key,w
  1735     0D78  1D03               	btfss	3,2
  1736     0D79  2D7B               	goto	u4691
  1737     0D7A  2D7C               	goto	u4690
  1738     0D7B                     u4691:
  1739     0D7B  2D81               	goto	l3569
  1740     0D7C                     u4690:
  1741     0D7C                     l3565:
  1742                           
  1743                           ;main.c: 97:                 {;main.c: 98:                     operation_mode = 0X04;
  1744     0D7C  3004               	movlw	4
  1745     0D7D  00EE               	movwf	_operation_mode
  1746                           
  1747                           ;main.c: 99:                     reset_mode = 0x12;
  1748     0D7E  3012               	movlw	18
  1749     0D7F  00ED               	movwf	_reset_mode
  1750                           
  1751                           ;main.c: 100:                     continue;
  1752     0D80  2CEF               	goto	l3523
  1753     0D81                     l3569:
  1754     0D81  301F               	movlw	31
  1755     0D82  0660               	xorwf	main@key,w
  1756     0D83  1D03               	btfss	3,2
  1757     0D84  2D86               	goto	u4701
  1758     0D85  2D87               	goto	u4700
  1759     0D86                     u4701:
  1760     0D86  2DA1               	goto	l3581
  1761     0D87                     u4700:
  1762     0D87                     l3571:
  1763                           
  1764                           ;main.c: 103:                 {;main.c: 104:                     operation_mode = 0X01;
  1765     0D87  01EE               	clrf	_operation_mode
  1766     0D88  0AEE               	incf	_operation_mode,f
  1767     0D89                     l3573:
  1768                           
  1769                           ;main.c: 105:                     reset_mode = 0X10;
  1770     0D89  3010               	movlw	16
  1771     0D8A  00ED               	movwf	_reset_mode
  1772                           
  1773                           ;main.c: 106:                     continue;
  1774     0D8B  2CEF               	goto	l3523
  1775     0D8C                     l3575:
  1776                           
  1777                           ;main.c: 111:                 run_program(key);
  1778     0D8C  0860               	movf	main@key,w
  1779     0D8D  120A  118A  203D  120A  158A  	fcall	_run_program
  1780                           
  1781                           ;main.c: 112:                 break;
  1782     0D92  2DA1               	goto	l3581
  1783     0D93                     l3579:
  1784     0D93  086E               	movf	_operation_mode,w
  1785                           
  1786                           ; Switch size 1, requested type "simple"
  1787                           ; Number of cases is 4, Range of values is 1 to 4
  1788                           ; switch strategies available:
  1789                           ; Name         Instructions Cycles
  1790                           ; simple_byte           13     7 (average)
  1791                           ; direct_byte           23    11 (fixed)
  1792                           ; jumptable            263     9 (fixed)
  1793                           ;	Chosen strategy is simple_byte
  1794     0D94  3A01               	xorlw	1	; case 1
  1795     0D95  1903               	skipnz
  1796     0D96  2D68               	goto	l3559
  1797     0D97  3A03               	xorlw	3	; case 2
  1798     0D98  1903               	skipnz
  1799     0D99  2D6F               	goto	l3561
  1800     0D9A  3A01               	xorlw	1	; case 3
  1801     0D9B  1903               	skipnz
  1802     0D9C  2D76               	goto	l3563
  1803     0D9D  3A07               	xorlw	7	; case 4
  1804     0D9E  1903               	skipnz
  1805     0D9F  2D8C               	goto	l3575
  1806     0DA0  2DA1               	goto	l3581
  1807     0DA1                     l3581:
  1808                           
  1809                           ;main.c: 115:         reset_mode = 0X00;
  1810     0DA1  1283               	bcf	3,5	;RP0=0, select bank0
  1811     0DA2  1303               	bcf	3,6	;RP1=0, select bank0
  1812     0DA3  01ED               	clrf	_reset_mode
  1813     0DA4  2CEF               	goto	l3523
  1814     0DA5  120A  118A  280C   	ljmp	start
  1815     0DA8                     __end_of_main:
  1816                           
  1817                           	psect	text1
  1818     0AA8                     __ptext1:	
  1819 ;; *************** function _water_level_display *****************
  1820 ;; Defined at:
  1821 ;;		line 189 in file "main.c"
  1822 ;; Parameters:    Size  Location     Type
  1823 ;;  key             1    wreg     unsigned char 
  1824 ;; Auto vars:     Size  Location     Type
  1825 ;;  key             1    4[BANK0 ] unsigned char 
  1826 ;; Return value:  Size  Location     Type
  1827 ;;                  1    wreg      void 
  1828 ;; Registers used:
  1829 ;;		wreg, fsr0l, fsr0h, status,2, status,0, btemp+1, pclath, cstack
  1830 ;; Tracked objects:
  1831 ;;		On entry : 0/0
  1832 ;;		On exit  : 0/0
  1833 ;;		Unchanged: 0/0
  1834 ;; Data sizes:     COMMON   BANK0   BANK1   BANK3   BANK2
  1835 ;;      Params:         0       0       0       0       0
  1836 ;;      Locals:         0       1       0       0       0
  1837 ;;      Temps:          0       2       0       0       0
  1838 ;;      Totals:         0       3       0       0       0
  1839 ;;Total ram usage:        3 bytes
  1840 ;; Hardware stack levels used: 1
  1841 ;; Hardware stack levels required when called: 3
  1842 ;; This function calls:
  1843 ;;		_clcd_print
  1844 ;;		_clcd_putch
  1845 ;;		_clear_screen
  1846 ;; This function is called by:
  1847 ;;		_main
  1848 ;; This function uses a non-reentrant model
  1849 ;;
  1850                           
  1851     0AA8                     _water_level_display:	
  1852                           ;psect for function _water_level_display
  1853                           
  1854                           
  1855                           ;incstack = 0
  1856                           ; Regs used in _water_level_display: [wreg-fsr0h+status,2+status,0+btemp+1+pclath+cstack
      +                          ]
  1857                           ;water_level_display@key stored from wreg
  1858     0AA8  1283               	bcf	3,5	;RP0=0, select bank0
  1859     0AA9  1303               	bcf	3,6	;RP1=0, select bank0
  1860     0AAA  00A4               	movwf	water_level_display@key
  1861     0AAB                     l3361:
  1862                           
  1863                           ;main.c: 189: void water_level_display(unsigned char key);main.c: 190: {;main.c: 191:   
      +                            if( reset_mode == 0x11)
  1864     0AAB  3011               	movlw	17
  1865     0AAC  066D               	xorwf	_reset_mode,w
  1866     0AAD  1D03               	btfss	3,2
  1867     0AAE  2AB0               	goto	u4441
  1868     0AAF  2AB1               	goto	u4440
  1869     0AB0                     u4441:
  1870     0AB0  2AB7               	goto	l3367
  1871     0AB1                     u4440:
  1872     0AB1                     l3363:
  1873                           
  1874                           ;main.c: 192:     {;main.c: 193:         water_level_index = 0;
  1875     0AB1  01FA               	clrf	_water_level_index
  1876     0AB2                     l3365:
  1877                           
  1878                           ;main.c: 194:         clear_screen();
  1879     0AB2  160A  118A  2517  120A  158A  	fcall	_clear_screen
  1880     0AB7                     l3367:
  1881                           
  1882                           ;main.c: 196:     if(key == 0x37)
  1883     0AB7  3037               	movlw	55
  1884     0AB8  1283               	bcf	3,5	;RP0=0, select bank0
  1885     0AB9  1303               	bcf	3,6	;RP1=0, select bank0
  1886     0ABA  0624               	xorwf	water_level_display@key,w
  1887     0ABB  1D03               	btfss	3,2
  1888     0ABC  2ABE               	goto	u4451
  1889     0ABD  2ABF               	goto	u4450
  1890     0ABE                     u4451:
  1891     0ABE  2ACF               	goto	l3377
  1892     0ABF                     u4450:
  1893     0ABF                     l3369:
  1894                           
  1895                           ;main.c: 197:     {;main.c: 198:         water_level_index++;
  1896     0ABF  3001               	movlw	1
  1897     0AC0  00FF               	movwf	btemp+1
  1898     0AC1  087F               	movf	btemp+1,w
  1899     0AC2  07FA               	addwf	_water_level_index,f
  1900     0AC3                     l3371:
  1901                           
  1902                           ;main.c: 199:         if(water_level_index == 5)
  1903     0AC3  3005               	movlw	5
  1904     0AC4  067A               	xorwf	_water_level_index,w
  1905     0AC5  1D03               	btfss	3,2
  1906     0AC6  2AC8               	goto	u4461
  1907     0AC7  2AC9               	goto	u4460
  1908     0AC8                     u4461:
  1909     0AC8  2ACA               	goto	l3375
  1910     0AC9                     u4460:
  1911     0AC9                     l3373:
  1912                           
  1913                           ;main.c: 200:         {;main.c: 201:             water_level_index = 0;
  1914     0AC9  01FA               	clrf	_water_level_index
  1915     0ACA                     l3375:
  1916                           
  1917                           ;main.c: 203:         clear_screen();
  1918     0ACA  160A  118A  2517  120A  158A  	fcall	_clear_screen
  1919     0ACF                     l3377:
  1920                           
  1921                           ;main.c: 207:     clcd_print("Water Level", (0x80 + 0));
  1922     0ACF  30D3               	movlw	low (STR_19| (0+32768))
  1923     0AD0  00F6               	movwf	clcd_print@str
  1924     0AD1  3090               	movlw	high (STR_19| (0+32768))
  1925     0AD2  00F7               	movwf	clcd_print@str+1
  1926     0AD3  3080               	movlw	128
  1927     0AD4  00F8               	movwf	clcd_print@addr
  1928     0AD5  160A  118A  25DB  120A  158A  	fcall	_clcd_print
  1929     0ADA                     l3379:
  1930                           
  1931                           ;main.c: 208:     clcd_putch('>', (0xC0 + 0));
  1932     0ADA  30C0               	movlw	192
  1933     0ADB  1283               	bcf	3,5	;RP0=0, select bank0
  1934     0ADC  1303               	bcf	3,6	;RP1=0, select bank0
  1935     0ADD  00A0               	movwf	clcd_putch@addr
  1936     0ADE  303E               	movlw	62
  1937     0ADF  120A  158A  2009  120A  158A  	fcall	_clcd_putch
  1938     0AE4                     l3381:
  1939                           
  1940                           ;main.c: 209:     if(water_level_index <= 2)
  1941     0AE4  3003               	movlw	3
  1942     0AE5  027A               	subwf	_water_level_index,w
  1943     0AE6  1803               	skipnc
  1944     0AE7  2AE9               	goto	u4471
  1945     0AE8  2AEA               	goto	u4470
  1946     0AE9                     u4471:
  1947     0AE9  2B2A               	goto	l3385
  1948     0AEA                     u4470:
  1949     0AEA                     l3383:
  1950                           
  1951                           ;main.c: 210:     {;main.c: 211:         clcd_print(water_level_arr[water_level_index], 
      +                          (0xC0 + 2));
  1952     0AEA  087A               	movf	_water_level_index,w
  1953     0AEB  1283               	bcf	3,5	;RP0=0, select bank0
  1954     0AEC  1303               	bcf	3,6	;RP1=0, select bank0
  1955     0AED  00A2               	movwf	??_water_level_display
  1956     0AEE  0722               	addwf	??_water_level_display,w
  1957     0AEF  3EA0               	addlw	(low (_water_level_arr| 0))& (0+255)
  1958     0AF0  0084               	movwf	4
  1959     0AF1  1383               	bcf	3,7	;select IRP bank1
  1960     0AF2  0800               	movf	0,w
  1961     0AF3  00F6               	movwf	clcd_print@str
  1962     0AF4  0A84               	incf	4,f
  1963     0AF5  0800               	movf	0,w
  1964     0AF6  0384               	decf	4,f
  1965     0AF7  00F7               	movwf	clcd_print@str+1
  1966     0AF8  30C2               	movlw	194
  1967     0AF9  00F8               	movwf	clcd_print@addr
  1968     0AFA  160A  118A  25DB  120A  158A  	fcall	_clcd_print
  1969                           
  1970                           ;main.c: 212:         clcd_print(water_level_arr[water_level_index + 1], (0x90 + 2));
  1971     0AFF  087A               	movf	_water_level_index,w
  1972     0B00  1283               	bcf	3,5	;RP0=0, select bank0
  1973     0B01  1303               	bcf	3,6	;RP1=0, select bank0
  1974     0B02  00A2               	movwf	??_water_level_display
  1975     0B03  0722               	addwf	??_water_level_display,w
  1976     0B04  3EA2               	addlw	(low ((_water_level_arr| 0+2)))& (0+255)
  1977     0B05  0084               	movwf	4
  1978     0B06  1383               	bcf	3,7	;select IRP bank1
  1979     0B07  0800               	movf	0,w
  1980     0B08  00F6               	movwf	clcd_print@str
  1981     0B09  0A84               	incf	4,f
  1982     0B0A  0800               	movf	0,w
  1983     0B0B  0384               	decf	4,f
  1984     0B0C  00F7               	movwf	clcd_print@str+1
  1985     0B0D  3092               	movlw	146
  1986     0B0E  00F8               	movwf	clcd_print@addr
  1987     0B0F  160A  118A  25DB  120A  158A  	fcall	_clcd_print
  1988                           
  1989                           ;main.c: 213:         clcd_print(water_level_arr[water_level_index + 2], (0xD0 + 2));
  1990     0B14  087A               	movf	_water_level_index,w
  1991     0B15  1283               	bcf	3,5	;RP0=0, select bank0
  1992     0B16  1303               	bcf	3,6	;RP1=0, select bank0
  1993     0B17  00A2               	movwf	??_water_level_display
  1994     0B18  0722               	addwf	??_water_level_display,w
  1995     0B19  3EA4               	addlw	(low ((_water_level_arr| 0+4)))& (0+255)
  1996     0B1A  0084               	movwf	4
  1997     0B1B  1383               	bcf	3,7	;select IRP bank1
  1998     0B1C  0800               	movf	0,w
  1999     0B1D  00F6               	movwf	clcd_print@str
  2000     0B1E  0A84               	incf	4,f
  2001     0B1F  0800               	movf	0,w
  2002     0B20  0384               	decf	4,f
  2003     0B21  00F7               	movwf	clcd_print@str+1
  2004     0B22  30D2               	movlw	210
  2005     0B23  00F8               	movwf	clcd_print@addr
  2006     0B24  160A  118A  25DB  120A  158A  	fcall	_clcd_print
  2007                           
  2008                           ;main.c: 214:     }
  2009     0B29  2B9D               	goto	l132
  2010     0B2A                     l3385:
  2011     0B2A  3003               	movlw	3
  2012     0B2B  067A               	xorwf	_water_level_index,w
  2013     0B2C  1D03               	btfss	3,2
  2014     0B2D  2B2F               	goto	u4481
  2015     0B2E  2B30               	goto	u4480
  2016     0B2F                     u4481:
  2017     0B2F  2B68               	goto	l3389
  2018     0B30                     u4480:
  2019     0B30                     l3387:
  2020                           
  2021                           ;main.c: 216:     {;main.c: 217:         clcd_print(water_level_arr[water_level_index], 
      +                          (0xC0 + 2));
  2022     0B30  087A               	movf	_water_level_index,w
  2023     0B31  1283               	bcf	3,5	;RP0=0, select bank0
  2024     0B32  1303               	bcf	3,6	;RP1=0, select bank0
  2025     0B33  00A2               	movwf	??_water_level_display
  2026     0B34  0722               	addwf	??_water_level_display,w
  2027     0B35  3EA0               	addlw	(low (_water_level_arr| 0))& (0+255)
  2028     0B36  0084               	movwf	4
  2029     0B37  1383               	bcf	3,7	;select IRP bank1
  2030     0B38  0800               	movf	0,w
  2031     0B39  00F6               	movwf	clcd_print@str
  2032     0B3A  0A84               	incf	4,f
  2033     0B3B  0800               	movf	0,w
  2034     0B3C  0384               	decf	4,f
  2035     0B3D  00F7               	movwf	clcd_print@str+1
  2036     0B3E  30C2               	movlw	194
  2037     0B3F  00F8               	movwf	clcd_print@addr
  2038     0B40  160A  118A  25DB  120A  158A  	fcall	_clcd_print
  2039                           
  2040                           ;main.c: 218:         clcd_print(water_level_arr[water_level_index + 1], (0x90 + 2));
  2041     0B45  087A               	movf	_water_level_index,w
  2042     0B46  1283               	bcf	3,5	;RP0=0, select bank0
  2043     0B47  1303               	bcf	3,6	;RP1=0, select bank0
  2044     0B48  00A2               	movwf	??_water_level_display
  2045     0B49  0722               	addwf	??_water_level_display,w
  2046     0B4A  3EA2               	addlw	(low ((_water_level_arr| 0+2)))& (0+255)
  2047     0B4B  0084               	movwf	4
  2048     0B4C  1383               	bcf	3,7	;select IRP bank1
  2049     0B4D  0800               	movf	0,w
  2050     0B4E  00F6               	movwf	clcd_print@str
  2051     0B4F  0A84               	incf	4,f
  2052     0B50  0800               	movf	0,w
  2053     0B51  0384               	decf	4,f
  2054     0B52  00F7               	movwf	clcd_print@str+1
  2055     0B53  3092               	movlw	146
  2056     0B54  00F8               	movwf	clcd_print@addr
  2057     0B55  160A  118A  25DB  120A  158A  	fcall	_clcd_print
  2058                           
  2059                           ;main.c: 219:         clcd_print(water_level_arr[0],(0xD0 + 2));
  2060     0B5A  1683               	bsf	3,5	;RP0=1, select bank1
  2061     0B5B  1303               	bcf	3,6	;RP1=0, select bank1
  2062     0B5C  0820               	movf	_water_level_arr^(0+128),w
  2063     0B5D  00F6               	movwf	clcd_print@str
  2064     0B5E  0821               	movf	(_water_level_arr+1)^(0+128),w
  2065     0B5F  00F7               	movwf	clcd_print@str+1
  2066     0B60  30D2               	movlw	210
  2067     0B61  00F8               	movwf	clcd_print@addr
  2068     0B62  160A  118A  25DB  120A  158A  	fcall	_clcd_print
  2069                           
  2070                           ;main.c: 220:     }
  2071     0B67  2B9D               	goto	l132
  2072     0B68                     l3389:
  2073     0B68  3004               	movlw	4
  2074     0B69  067A               	xorwf	_water_level_index,w
  2075     0B6A  1D03               	btfss	3,2
  2076     0B6B  2B6D               	goto	u4491
  2077     0B6C  2B6E               	goto	u4490
  2078     0B6D                     u4491:
  2079     0B6D  2B9D               	goto	l132
  2080     0B6E                     u4490:
  2081     0B6E                     l3391:
  2082                           
  2083                           ;main.c: 222:     {;main.c: 223:         clcd_print(water_level_arr[water_level_index], 
      +                          (0xC0 + 2));
  2084     0B6E  087A               	movf	_water_level_index,w
  2085     0B6F  1283               	bcf	3,5	;RP0=0, select bank0
  2086     0B70  1303               	bcf	3,6	;RP1=0, select bank0
  2087     0B71  00A2               	movwf	??_water_level_display
  2088     0B72  0722               	addwf	??_water_level_display,w
  2089     0B73  3EA0               	addlw	(low (_water_level_arr| 0))& (0+255)
  2090     0B74  0084               	movwf	4
  2091     0B75  1383               	bcf	3,7	;select IRP bank1
  2092     0B76  0800               	movf	0,w
  2093     0B77  00F6               	movwf	clcd_print@str
  2094     0B78  0A84               	incf	4,f
  2095     0B79  0800               	movf	0,w
  2096     0B7A  0384               	decf	4,f
  2097     0B7B  00F7               	movwf	clcd_print@str+1
  2098     0B7C  30C2               	movlw	194
  2099     0B7D  00F8               	movwf	clcd_print@addr
  2100     0B7E  160A  118A  25DB  120A  158A  	fcall	_clcd_print
  2101                           
  2102                           ;main.c: 224:         clcd_print(water_level_arr[0], (0x90 + 2));
  2103     0B83  1683               	bsf	3,5	;RP0=1, select bank1
  2104     0B84  1303               	bcf	3,6	;RP1=0, select bank1
  2105     0B85  0820               	movf	_water_level_arr^(0+128),w
  2106     0B86  00F6               	movwf	clcd_print@str
  2107     0B87  0821               	movf	(_water_level_arr+1)^(0+128),w
  2108     0B88  00F7               	movwf	clcd_print@str+1
  2109     0B89  3092               	movlw	146
  2110     0B8A  00F8               	movwf	clcd_print@addr
  2111     0B8B  160A  118A  25DB  120A  158A  	fcall	_clcd_print
  2112                           
  2113                           ;main.c: 225:         clcd_print(water_level_arr[1], (0xD0 + 2));
  2114     0B90  1683               	bsf	3,5	;RP0=1, select bank1
  2115     0B91  1303               	bcf	3,6	;RP1=0, select bank1
  2116     0B92  0822               	movf	(low ((_water_level_arr| 0+2)))^(0+128),w
  2117     0B93  00F6               	movwf	clcd_print@str
  2118     0B94  0823               	movf	((low ((_water_level_arr| 0+2))+1))^(0+128),w
  2119     0B95  00F7               	movwf	clcd_print@str+1
  2120     0B96  30D2               	movlw	210
  2121     0B97  00F8               	movwf	clcd_print@addr
  2122     0B98  160A  118A  25DB  120A  158A  	fcall	_clcd_print
  2123     0B9D                     l132:
  2124     0B9D  0008               	return
  2125     0B9E                     __end_of_water_level_display:
  2126                           
  2127                           	psect	text2
  2128     09B2                     __ptext2:	
  2129 ;; *************** function _washing_program_display *****************
  2130 ;; Defined at:
  2131 ;;		line 149 in file "main.c"
  2132 ;; Parameters:    Size  Location     Type
  2133 ;;  key             1    wreg     unsigned char 
  2134 ;; Auto vars:     Size  Location     Type
  2135 ;;  key             1    4[BANK0 ] unsigned char 
  2136 ;; Return value:  Size  Location     Type
  2137 ;;                  1    wreg      void 
  2138 ;; Registers used:
  2139 ;;		wreg, fsr0l, fsr0h, status,2, status,0, btemp+1, pclath, cstack
  2140 ;; Tracked objects:
  2141 ;;		On entry : 0/0
  2142 ;;		On exit  : 0/0
  2143 ;;		Unchanged: 0/0
  2144 ;; Data sizes:     COMMON   BANK0   BANK1   BANK3   BANK2
  2145 ;;      Params:         0       0       0       0       0
  2146 ;;      Locals:         0       1       0       0       0
  2147 ;;      Temps:          0       2       0       0       0
  2148 ;;      Totals:         0       3       0       0       0
  2149 ;;Total ram usage:        3 bytes
  2150 ;; Hardware stack levels used: 1
  2151 ;; Hardware stack levels required when called: 3
  2152 ;; This function calls:
  2153 ;;		_clcd_print
  2154 ;;		_clcd_putch
  2155 ;;		_clear_screen
  2156 ;; This function is called by:
  2157 ;;		_main
  2158 ;; This function uses a non-reentrant model
  2159 ;;
  2160                           
  2161     09B2                     _washing_program_display:	
  2162                           ;psect for function _washing_program_display
  2163                           
  2164                           
  2165                           ;incstack = 0
  2166                           ; Regs used in _washing_program_display: [wreg-fsr0h+status,2+status,0+btemp+1+pclath+cs
      +                          tack]
  2167                           ;washing_program_display@key stored from wreg
  2168     09B2  1283               	bcf	3,5	;RP0=0, select bank0
  2169     09B3  1303               	bcf	3,6	;RP1=0, select bank0
  2170     09B4  00A4               	movwf	washing_program_display@key
  2171     09B5                     l3329:
  2172                           
  2173                           ;main.c: 149: void washing_program_display(unsigned char key);main.c: 150: {;main.c: 151
      +                          :     if( reset_mode == 0X10)
  2174     09B5  3010               	movlw	16
  2175     09B6  066D               	xorwf	_reset_mode,w
  2176     09B7  1D03               	btfss	3,2
  2177     09B8  29BA               	goto	u4381
  2178     09B9  29BB               	goto	u4380
  2179     09BA                     u4381:
  2180     09BA  29C1               	goto	l3335
  2181     09BB                     u4380:
  2182     09BB                     l3331:
  2183                           
  2184                           ;main.c: 152:     {;main.c: 153:         clear_screen();
  2185     09BB  160A  118A  2517  120A  158A  	fcall	_clear_screen
  2186     09C0                     l3333:
  2187                           
  2188                           ;main.c: 154:         program_no = 0;
  2189     09C0  01FB               	clrf	_program_no
  2190     09C1                     l3335:
  2191                           
  2192                           ;main.c: 156:     if (key == 0x37)
  2193     09C1  3037               	movlw	55
  2194     09C2  1283               	bcf	3,5	;RP0=0, select bank0
  2195     09C3  1303               	bcf	3,6	;RP1=0, select bank0
  2196     09C4  0624               	xorwf	washing_program_display@key,w
  2197     09C5  1D03               	btfss	3,2
  2198     09C6  29C8               	goto	u4391
  2199     09C7  29C9               	goto	u4390
  2200     09C8                     u4391:
  2201     09C8  29D9               	goto	l3345
  2202     09C9                     u4390:
  2203     09C9                     l3337:
  2204                           
  2205                           ;main.c: 157:     {;main.c: 158:        program_no++;
  2206     09C9  3001               	movlw	1
  2207     09CA  00FF               	movwf	btemp+1
  2208     09CB  087F               	movf	btemp+1,w
  2209     09CC  07FB               	addwf	_program_no,f
  2210     09CD                     l3339:
  2211                           
  2212                           ;main.c: 159:        if( program_no == 12)
  2213     09CD  300C               	movlw	12
  2214     09CE  067B               	xorwf	_program_no,w
  2215     09CF  1D03               	btfss	3,2
  2216     09D0  29D2               	goto	u4401
  2217     09D1  29D3               	goto	u4400
  2218     09D2                     u4401:
  2219     09D2  29D4               	goto	l3343
  2220     09D3                     u4400:
  2221     09D3                     l3341:
  2222                           
  2223                           ;main.c: 160:               program_no = 0;
  2224     09D3  01FB               	clrf	_program_no
  2225     09D4                     l3343:
  2226                           
  2227                           ;main.c: 161:              clear_screen();
  2228     09D4  160A  118A  2517  120A  158A  	fcall	_clear_screen
  2229     09D9                     l3345:
  2230                           
  2231                           ;main.c: 164:     clcd_print("Washing Program", (0x80 + 0));
  2232     09D9  3076               	movlw	low (STR_18| (0+32768))
  2233     09DA  00F6               	movwf	clcd_print@str
  2234     09DB  3090               	movlw	high (STR_18| (0+32768))
  2235     09DC  00F7               	movwf	clcd_print@str+1
  2236     09DD  3080               	movlw	128
  2237     09DE  00F8               	movwf	clcd_print@addr
  2238     09DF  160A  118A  25DB  120A  158A  	fcall	_clcd_print
  2239     09E4                     l3347:
  2240                           
  2241                           ;main.c: 165:     clcd_putch('>', (0xC0 + 0));
  2242     09E4  30C0               	movlw	192
  2243     09E5  1283               	bcf	3,5	;RP0=0, select bank0
  2244     09E6  1303               	bcf	3,6	;RP1=0, select bank0
  2245     09E7  00A0               	movwf	clcd_putch@addr
  2246     09E8  303E               	movlw	62
  2247     09E9  120A  158A  2009  120A  158A  	fcall	_clcd_putch
  2248     09EE                     l3349:
  2249                           
  2250                           ;main.c: 168:     if(program_no <= 9)
  2251     09EE  300A               	movlw	10
  2252     09EF  027B               	subwf	_program_no,w
  2253     09F0  1803               	skipnc
  2254     09F1  29F3               	goto	u4411
  2255     09F2  29F4               	goto	u4410
  2256     09F3                     u4411:
  2257     09F3  2A34               	goto	l3353
  2258     09F4                     u4410:
  2259     09F4                     l3351:
  2260                           
  2261                           ;main.c: 169:     {;main.c: 170:           clcd_print(washing_prog[program_no],(0xC0 + 2
      +                          ));
  2262     09F4  087B               	movf	_program_no,w
  2263     09F5  1283               	bcf	3,5	;RP0=0, select bank0
  2264     09F6  1303               	bcf	3,6	;RP1=0, select bank0
  2265     09F7  00A2               	movwf	??_washing_program_display
  2266     09F8  0722               	addwf	??_washing_program_display,w
  2267     09F9  3EAA               	addlw	(low (_washing_prog| 0))& (0+255)
  2268     09FA  0084               	movwf	4
  2269     09FB  1383               	bcf	3,7	;select IRP bank1
  2270     09FC  0800               	movf	0,w
  2271     09FD  00F6               	movwf	clcd_print@str
  2272     09FE  0A84               	incf	4,f
  2273     09FF  0800               	movf	0,w
  2274     0A00  0384               	decf	4,f
  2275     0A01  00F7               	movwf	clcd_print@str+1
  2276     0A02  30C2               	movlw	194
  2277     0A03  00F8               	movwf	clcd_print@addr
  2278     0A04  160A  118A  25DB  120A  158A  	fcall	_clcd_print
  2279                           
  2280                           ;main.c: 171:           clcd_print(washing_prog[program_no + 1],(0x90 + 2));
  2281     0A09  087B               	movf	_program_no,w
  2282     0A0A  1283               	bcf	3,5	;RP0=0, select bank0
  2283     0A0B  1303               	bcf	3,6	;RP1=0, select bank0
  2284     0A0C  00A2               	movwf	??_washing_program_display
  2285     0A0D  0722               	addwf	??_washing_program_display,w
  2286     0A0E  3EAC               	addlw	(low ((_washing_prog| 0+2)))& (0+255)
  2287     0A0F  0084               	movwf	4
  2288     0A10  1383               	bcf	3,7	;select IRP bank1
  2289     0A11  0800               	movf	0,w
  2290     0A12  00F6               	movwf	clcd_print@str
  2291     0A13  0A84               	incf	4,f
  2292     0A14  0800               	movf	0,w
  2293     0A15  0384               	decf	4,f
  2294     0A16  00F7               	movwf	clcd_print@str+1
  2295     0A17  3092               	movlw	146
  2296     0A18  00F8               	movwf	clcd_print@addr
  2297     0A19  160A  118A  25DB  120A  158A  	fcall	_clcd_print
  2298                           
  2299                           ;main.c: 172:           clcd_print(washing_prog[program_no + 2],(0xD0 + 2));
  2300     0A1E  087B               	movf	_program_no,w
  2301     0A1F  1283               	bcf	3,5	;RP0=0, select bank0
  2302     0A20  1303               	bcf	3,6	;RP1=0, select bank0
  2303     0A21  00A2               	movwf	??_washing_program_display
  2304     0A22  0722               	addwf	??_washing_program_display,w
  2305     0A23  3EAE               	addlw	(low ((_washing_prog| 0+4)))& (0+255)
  2306     0A24  0084               	movwf	4
  2307     0A25  1383               	bcf	3,7	;select IRP bank1
  2308     0A26  0800               	movf	0,w
  2309     0A27  00F6               	movwf	clcd_print@str
  2310     0A28  0A84               	incf	4,f
  2311     0A29  0800               	movf	0,w
  2312     0A2A  0384               	decf	4,f
  2313     0A2B  00F7               	movwf	clcd_print@str+1
  2314     0A2C  30D2               	movlw	210
  2315     0A2D  00F8               	movwf	clcd_print@addr
  2316     0A2E  160A  118A  25DB  120A  158A  	fcall	_clcd_print
  2317                           
  2318                           ;main.c: 173:     }
  2319     0A33  2AA7               	goto	l121
  2320     0A34                     l3353:
  2321     0A34  300A               	movlw	10
  2322     0A35  067B               	xorwf	_program_no,w
  2323     0A36  1D03               	btfss	3,2
  2324     0A37  2A39               	goto	u4421
  2325     0A38  2A3A               	goto	u4420
  2326     0A39                     u4421:
  2327     0A39  2A72               	goto	l3357
  2328     0A3A                     u4420:
  2329     0A3A                     l3355:
  2330                           
  2331                           ;main.c: 175:     {;main.c: 176:           clcd_print(washing_prog[program_no],(0xC0 + 2
      +                          ));
  2332     0A3A  087B               	movf	_program_no,w
  2333     0A3B  1283               	bcf	3,5	;RP0=0, select bank0
  2334     0A3C  1303               	bcf	3,6	;RP1=0, select bank0
  2335     0A3D  00A2               	movwf	??_washing_program_display
  2336     0A3E  0722               	addwf	??_washing_program_display,w
  2337     0A3F  3EAA               	addlw	(low (_washing_prog| 0))& (0+255)
  2338     0A40  0084               	movwf	4
  2339     0A41  1383               	bcf	3,7	;select IRP bank1
  2340     0A42  0800               	movf	0,w
  2341     0A43  00F6               	movwf	clcd_print@str
  2342     0A44  0A84               	incf	4,f
  2343     0A45  0800               	movf	0,w
  2344     0A46  0384               	decf	4,f
  2345     0A47  00F7               	movwf	clcd_print@str+1
  2346     0A48  30C2               	movlw	194
  2347     0A49  00F8               	movwf	clcd_print@addr
  2348     0A4A  160A  118A  25DB  120A  158A  	fcall	_clcd_print
  2349                           
  2350                           ;main.c: 177:           clcd_print(washing_prog[program_no + 1],(0x90 + 2));
  2351     0A4F  087B               	movf	_program_no,w
  2352     0A50  1283               	bcf	3,5	;RP0=0, select bank0
  2353     0A51  1303               	bcf	3,6	;RP1=0, select bank0
  2354     0A52  00A2               	movwf	??_washing_program_display
  2355     0A53  0722               	addwf	??_washing_program_display,w
  2356     0A54  3EAC               	addlw	(low ((_washing_prog| 0+2)))& (0+255)
  2357     0A55  0084               	movwf	4
  2358     0A56  1383               	bcf	3,7	;select IRP bank1
  2359     0A57  0800               	movf	0,w
  2360     0A58  00F6               	movwf	clcd_print@str
  2361     0A59  0A84               	incf	4,f
  2362     0A5A  0800               	movf	0,w
  2363     0A5B  0384               	decf	4,f
  2364     0A5C  00F7               	movwf	clcd_print@str+1
  2365     0A5D  3092               	movlw	146
  2366     0A5E  00F8               	movwf	clcd_print@addr
  2367     0A5F  160A  118A  25DB  120A  158A  	fcall	_clcd_print
  2368                           
  2369                           ;main.c: 178:           clcd_print(washing_prog[0],(0xD0 + 2));
  2370     0A64  1683               	bsf	3,5	;RP0=1, select bank1
  2371     0A65  1303               	bcf	3,6	;RP1=0, select bank1
  2372     0A66  082A               	movf	_washing_prog^(0+128),w
  2373     0A67  00F6               	movwf	clcd_print@str
  2374     0A68  082B               	movf	(_washing_prog+1)^(0+128),w
  2375     0A69  00F7               	movwf	clcd_print@str+1
  2376     0A6A  30D2               	movlw	210
  2377     0A6B  00F8               	movwf	clcd_print@addr
  2378     0A6C  160A  118A  25DB  120A  158A  	fcall	_clcd_print
  2379                           
  2380                           ;main.c: 180:     }
  2381     0A71  2AA7               	goto	l121
  2382     0A72                     l3357:
  2383     0A72  300B               	movlw	11
  2384     0A73  067B               	xorwf	_program_no,w
  2385     0A74  1D03               	btfss	3,2
  2386     0A75  2A77               	goto	u4431
  2387     0A76  2A78               	goto	u4430
  2388     0A77                     u4431:
  2389     0A77  2AA7               	goto	l121
  2390     0A78                     u4430:
  2391     0A78                     l3359:
  2392                           
  2393                           ;main.c: 182:     {;main.c: 183:           clcd_print(washing_prog[program_no], (0xC0 + 
      +                          2));
  2394     0A78  087B               	movf	_program_no,w
  2395     0A79  1283               	bcf	3,5	;RP0=0, select bank0
  2396     0A7A  1303               	bcf	3,6	;RP1=0, select bank0
  2397     0A7B  00A2               	movwf	??_washing_program_display
  2398     0A7C  0722               	addwf	??_washing_program_display,w
  2399     0A7D  3EAA               	addlw	(low (_washing_prog| 0))& (0+255)
  2400     0A7E  0084               	movwf	4
  2401     0A7F  1383               	bcf	3,7	;select IRP bank1
  2402     0A80  0800               	movf	0,w
  2403     0A81  00F6               	movwf	clcd_print@str
  2404     0A82  0A84               	incf	4,f
  2405     0A83  0800               	movf	0,w
  2406     0A84  0384               	decf	4,f
  2407     0A85  00F7               	movwf	clcd_print@str+1
  2408     0A86  30C2               	movlw	194
  2409     0A87  00F8               	movwf	clcd_print@addr
  2410     0A88  160A  118A  25DB  120A  158A  	fcall	_clcd_print
  2411                           
  2412                           ;main.c: 184:           clcd_print(washing_prog[0], (0x90 + 2));
  2413     0A8D  1683               	bsf	3,5	;RP0=1, select bank1
  2414     0A8E  1303               	bcf	3,6	;RP1=0, select bank1
  2415     0A8F  082A               	movf	_washing_prog^(0+128),w
  2416     0A90  00F6               	movwf	clcd_print@str
  2417     0A91  082B               	movf	(_washing_prog+1)^(0+128),w
  2418     0A92  00F7               	movwf	clcd_print@str+1
  2419     0A93  3092               	movlw	146
  2420     0A94  00F8               	movwf	clcd_print@addr
  2421     0A95  160A  118A  25DB  120A  158A  	fcall	_clcd_print
  2422                           
  2423                           ;main.c: 185:           clcd_print(washing_prog[1], (0xD0 + 2));
  2424     0A9A  1683               	bsf	3,5	;RP0=1, select bank1
  2425     0A9B  1303               	bcf	3,6	;RP1=0, select bank1
  2426     0A9C  082C               	movf	(low ((_washing_prog| 0+2)))^(0+128),w
  2427     0A9D  00F6               	movwf	clcd_print@str
  2428     0A9E  082D               	movf	((low ((_washing_prog| 0+2))+1))^(0+128),w
  2429     0A9F  00F7               	movwf	clcd_print@str+1
  2430     0AA0  30D2               	movlw	210
  2431     0AA1  00F8               	movwf	clcd_print@addr
  2432     0AA2  160A  118A  25DB  120A  158A  	fcall	_clcd_print
  2433     0AA7                     l121:
  2434     0AA7  0008               	return
  2435     0AA8                     __end_of_washing_program_display:
  2436                           
  2437                           	psect	text3
  2438     0B9E                     __ptext3:	
  2439 ;; *************** function _set_time_for_program *****************
  2440 ;; Defined at:
  2441 ;;		line 229 in file "main.c"
  2442 ;; Parameters:    Size  Location     Type
  2443 ;;		None
  2444 ;; Auto vars:     Size  Location     Type
  2445 ;;		None
  2446 ;; Return value:  Size  Location     Type
  2447 ;;                  1    wreg      void 
  2448 ;; Registers used:
  2449 ;;		wreg, fsr0l, fsr0h, status,2, status,0
  2450 ;; Tracked objects:
  2451 ;;		On entry : 0/0
  2452 ;;		On exit  : 0/0
  2453 ;;		Unchanged: 0/0
  2454 ;; Data sizes:     COMMON   BANK0   BANK1   BANK3   BANK2
  2455 ;;      Params:         0       0       0       0       0
  2456 ;;      Locals:         0       0       0       0       0
  2457 ;;      Temps:          0       0       0       0       0
  2458 ;;      Totals:         0       0       0       0       0
  2459 ;;Total ram usage:        0 bytes
  2460 ;; Hardware stack levels used: 1
  2461 ;; Hardware stack levels required when called: 1
  2462 ;; This function calls:
  2463 ;;		Nothing
  2464 ;; This function is called by:
  2465 ;;		_main
  2466 ;; This function uses a non-reentrant model
  2467 ;;
  2468                           
  2469     0B9E                     _set_time_for_program:	
  2470                           ;psect for function _set_time_for_program
  2471                           
  2472     0B9E                     l2695:	
  2473                           ;incstack = 0
  2474                           ; Regs used in _set_time_for_program: [wreg-fsr0h+status,2+status,0]
  2475                           
  2476                           
  2477                           ;main.c: 231:     switch(program_no)
  2478     0B9E  2C72               	goto	l2781
  2479     0B9F                     l2697:
  2480                           
  2481                           ;main.c: 238:                 sec = 33;
  2482     0B9F  3021               	movlw	33
  2483     0BA0  1283               	bcf	3,5	;RP0=0, select bank0
  2484     0BA1  1303               	bcf	3,6	;RP1=0, select bank0
  2485     0BA2  00EC               	movwf	_sec
  2486     0BA3                     l2699:
  2487                           
  2488                           ;main.c: 239:                 min = 0;
  2489     0BA3  01EB               	clrf	_min
  2490                           
  2491                           ;main.c: 240:             break;
  2492     0BA4  2C98               	goto	l191
  2493     0BA5                     l2701:
  2494                           
  2495                           ;main.c: 243:                 sec = 41;
  2496     0BA5  3029               	movlw	41
  2497     0BA6  1283               	bcf	3,5	;RP0=0, select bank0
  2498     0BA7  1303               	bcf	3,6	;RP1=0, select bank0
  2499     0BA8  00EC               	movwf	_sec
  2500     0BA9  2BA3               	goto	l2699
  2501     0BAA                     l2705:
  2502                           
  2503                           ;main.c: 248:                 sec = 45;
  2504     0BAA  302D               	movlw	45
  2505     0BAB  1283               	bcf	3,5	;RP0=0, select bank0
  2506     0BAC  1303               	bcf	3,6	;RP1=0, select bank0
  2507     0BAD  00EC               	movwf	_sec
  2508     0BAE  2BA3               	goto	l2699
  2509     0BAF                     l2709:
  2510     0BAF  087A               	movf	_water_level_index,w
  2511                           
  2512                           ; Switch size 1, requested type "simple"
  2513                           ; Number of cases is 5, Range of values is 0 to 4
  2514                           ; switch strategies available:
  2515                           ; Name         Instructions Cycles
  2516                           ; simple_byte           16     9 (average)
  2517                           ; direct_byte           23     8 (fixed)
  2518                           ; jumptable            260     6 (fixed)
  2519                           ;	Chosen strategy is simple_byte
  2520     0BB0  3A00               	xorlw	0	; case 0
  2521     0BB1  1903               	skipnz
  2522     0BB2  2BA5               	goto	l2701
  2523     0BB3  3A01               	xorlw	1	; case 1
  2524     0BB4  1903               	skipnz
  2525     0BB5  2B9F               	goto	l2697
  2526     0BB6  3A03               	xorlw	3	; case 2
  2527     0BB7  1903               	skipnz
  2528     0BB8  2BA5               	goto	l2701
  2529     0BB9  3A01               	xorlw	1	; case 3
  2530     0BBA  1903               	skipnz
  2531     0BBB  2BAA               	goto	l2705
  2532     0BBC  3A07               	xorlw	7	; case 4
  2533     0BBD  1903               	skipnz
  2534     0BBE  2BAA               	goto	l2705
  2535     0BBF  2C98               	goto	l191
  2536     0BC0                     l2711:
  2537                           
  2538                           ;main.c: 257:          sec = 43;
  2539     0BC0  302B               	movlw	43
  2540     0BC1  1283               	bcf	3,5	;RP0=0, select bank0
  2541     0BC2  1303               	bcf	3,6	;RP1=0, select bank0
  2542     0BC3  00EC               	movwf	_sec
  2543     0BC4                     l2713:
  2544                           
  2545                           ;main.c: 258:          min = 0;
  2546     0BC4  01EB               	clrf	_min
  2547     0BC5                     l2715:
  2548                           
  2549                           ;main.c: 261:         sec = 50;
  2550     0BC5  3032               	movlw	50
  2551     0BC6  1283               	bcf	3,5	;RP0=0, select bank0
  2552     0BC7  1303               	bcf	3,6	;RP1=0, select bank0
  2553     0BC8  00EC               	movwf	_sec
  2554                           
  2555                           ;main.c: 262:         min = 0;
  2556     0BC9  01EB               	clrf	_min
  2557                           
  2558                           ;main.c: 263:         break;
  2559     0BCA  2C98               	goto	l191
  2560     0BCB                     l2717:
  2561                           
  2562                           ;main.c: 266:         sec = 57;
  2563     0BCB  3039               	movlw	57
  2564     0BCC  1283               	bcf	3,5	;RP0=0, select bank0
  2565     0BCD  1303               	bcf	3,6	;RP1=0, select bank0
  2566     0BCE  00EC               	movwf	_sec
  2567     0BCF  2BA3               	goto	l2699
  2568     0BD0                     l2721:
  2569     0BD0  087A               	movf	_water_level_index,w
  2570                           
  2571                           ; Switch size 1, requested type "simple"
  2572                           ; Number of cases is 5, Range of values is 0 to 4
  2573                           ; switch strategies available:
  2574                           ; Name         Instructions Cycles
  2575                           ; simple_byte           16     9 (average)
  2576                           ; direct_byte           23     8 (fixed)
  2577                           ; jumptable            260     6 (fixed)
  2578                           ;	Chosen strategy is simple_byte
  2579     0BD1  3A00               	xorlw	0	; case 0
  2580     0BD2  1903               	skipnz
  2581     0BD3  2BC5               	goto	l2715
  2582     0BD4  3A01               	xorlw	1	; case 1
  2583     0BD5  1903               	skipnz
  2584     0BD6  2BC0               	goto	l2711
  2585     0BD7  3A03               	xorlw	3	; case 2
  2586     0BD8  1903               	skipnz
  2587     0BD9  2BC5               	goto	l2715
  2588     0BDA  3A01               	xorlw	1	; case 3
  2589     0BDB  1903               	skipnz
  2590     0BDC  2BCB               	goto	l2717
  2591     0BDD  3A07               	xorlw	7	; case 4
  2592     0BDE  1903               	skipnz
  2593     0BDF  2BCB               	goto	l2717
  2594     0BE0  2C98               	goto	l191
  2595     0BE1                     l2723:
  2596                           
  2597                           ;main.c: 277:                     sec = 26;
  2598     0BE1  301A               	movlw	26
  2599     0BE2  1283               	bcf	3,5	;RP0=0, select bank0
  2600     0BE3  1303               	bcf	3,6	;RP1=0, select bank0
  2601     0BE4  00EC               	movwf	_sec
  2602     0BE5  2BA3               	goto	l2699
  2603     0BE6                     l2727:
  2604                           
  2605                           ;main.c: 282:                 sec = 31;
  2606     0BE6  301F               	movlw	31
  2607     0BE7  1283               	bcf	3,5	;RP0=0, select bank0
  2608     0BE8  1303               	bcf	3,6	;RP1=0, select bank0
  2609     0BE9  00EC               	movwf	_sec
  2610     0BEA  2BA3               	goto	l2699
  2611     0BEB                     l2731:
  2612     0BEB  087A               	movf	_water_level_index,w
  2613                           
  2614                           ; Switch size 1, requested type "simple"
  2615                           ; Number of cases is 5, Range of values is 0 to 4
  2616                           ; switch strategies available:
  2617                           ; Name         Instructions Cycles
  2618                           ; simple_byte           16     9 (average)
  2619                           ; direct_byte           23     8 (fixed)
  2620                           ; jumptable            260     6 (fixed)
  2621                           ;	Chosen strategy is simple_byte
  2622     0BEC  3A00               	xorlw	0	; case 0
  2623     0BED  1903               	skipnz
  2624     0BEE  2BE1               	goto	l2723
  2625     0BEF  3A01               	xorlw	1	; case 1
  2626     0BF0  1903               	skipnz
  2627     0BF1  2BE1               	goto	l2723
  2628     0BF2  3A03               	xorlw	3	; case 2
  2629     0BF3  1903               	skipnz
  2630     0BF4  2BE1               	goto	l2723
  2631     0BF5  3A01               	xorlw	1	; case 3
  2632     0BF6  1903               	skipnz
  2633     0BF7  2BE6               	goto	l2727
  2634     0BF8  3A07               	xorlw	7	; case 4
  2635     0BF9  1903               	skipnz
  2636     0BFA  2BE6               	goto	l2727
  2637     0BFB  2C98               	goto	l191
  2638     0BFC                     l2733:
  2639                           
  2640                           ;main.c: 287:             sec = 16;
  2641     0BFC  3010               	movlw	16
  2642     0BFD  1283               	bcf	3,5	;RP0=0, select bank0
  2643     0BFE  1303               	bcf	3,6	;RP1=0, select bank0
  2644     0BFF  00EC               	movwf	_sec
  2645     0C00                     l2735:
  2646                           
  2647                           ;main.c: 288:             min =1;
  2648     0C00  01EB               	clrf	_min
  2649     0C01  0AEB               	incf	_min,f
  2650                           
  2651                           ;main.c: 289:             break;
  2652     0C02  2C98               	goto	l191
  2653     0C03                     l2737:
  2654                           
  2655                           ;main.c: 292:             sec = 36;
  2656     0C03  3024               	movlw	36
  2657     0C04  1283               	bcf	3,5	;RP0=0, select bank0
  2658     0C05  1303               	bcf	3,6	;RP1=0, select bank0
  2659     0C06  00EC               	movwf	_sec
  2660     0C07                     l2739:
  2661                           
  2662                           ;main.c: 293:             min = 1;
  2663     0C07  01EB               	clrf	_min
  2664     0C08  0AEB               	incf	_min,f
  2665     0C09                     l163:	
  2666                           ;main.c: 294:         case 5:
  2667                           
  2668                           
  2669                           ;main.c: 295:             sec = 28;
  2670     0C09  301C               	movlw	28
  2671     0C0A  1283               	bcf	3,5	;RP0=0, select bank0
  2672     0C0B  1303               	bcf	3,6	;RP1=0, select bank0
  2673     0C0C  00EC               	movwf	_sec
  2674     0C0D  2BA3               	goto	l2699
  2675     0C0E                     l2743:
  2676                           
  2677                           ;main.c: 299:             sec = 29;
  2678     0C0E  301D               	movlw	29
  2679     0C0F  1283               	bcf	3,5	;RP0=0, select bank0
  2680     0C10  1303               	bcf	3,6	;RP1=0, select bank0
  2681     0C11  00EC               	movwf	_sec
  2682                           
  2683                           ;main.c: 300:             break;
  2684     0C12  2C98               	goto	l191
  2685     0C13                     l2745:
  2686                           
  2687                           ;main.c: 306:                 sec = 46;
  2688     0C13  302E               	movlw	46
  2689     0C14  1283               	bcf	3,5	;RP0=0, select bank0
  2690     0C15  1303               	bcf	3,6	;RP1=0, select bank0
  2691     0C16  00EC               	movwf	_sec
  2692     0C17                     l2747:
  2693                           
  2694                           ;main.c: 307:                 min = 0;
  2695     0C17  01EB               	clrf	_min
  2696     0C18                     l2749:
  2697                           
  2698                           ;main.c: 310:                     sec = 53;
  2699     0C18  3035               	movlw	53
  2700     0C19  1283               	bcf	3,5	;RP0=0, select bank0
  2701     0C1A  1303               	bcf	3,6	;RP1=0, select bank0
  2702     0C1B  00EC               	movwf	_sec
  2703                           
  2704                           ;main.c: 311:                     min = 0;
  2705     0C1C  01EB               	clrf	_min
  2706                           
  2707                           ;main.c: 312:                     break;
  2708     0C1D  2C98               	goto	l191
  2709     0C1E                     l2751:
  2710                           
  2711                           ;main.c: 315:                     sec = 60;
  2712     0C1E  303C               	movlw	60
  2713     0C1F  1283               	bcf	3,5	;RP0=0, select bank0
  2714     0C20  1303               	bcf	3,6	;RP1=0, select bank0
  2715     0C21  00EC               	movwf	_sec
  2716     0C22  2BA3               	goto	l2699
  2717     0C23                     l2755:
  2718     0C23  087A               	movf	_water_level_index,w
  2719                           
  2720                           ; Switch size 1, requested type "simple"
  2721                           ; Number of cases is 5, Range of values is 0 to 4
  2722                           ; switch strategies available:
  2723                           ; Name         Instructions Cycles
  2724                           ; simple_byte           16     9 (average)
  2725                           ; direct_byte           23     8 (fixed)
  2726                           ; jumptable            260     6 (fixed)
  2727                           ;	Chosen strategy is simple_byte
  2728     0C24  3A00               	xorlw	0	; case 0
  2729     0C25  1903               	skipnz
  2730     0C26  2C18               	goto	l2749
  2731     0C27  3A01               	xorlw	1	; case 1
  2732     0C28  1903               	skipnz
  2733     0C29  2C13               	goto	l2745
  2734     0C2A  3A03               	xorlw	3	; case 2
  2735     0C2B  1903               	skipnz
  2736     0C2C  2C18               	goto	l2749
  2737     0C2D  3A01               	xorlw	1	; case 3
  2738     0C2E  1903               	skipnz
  2739     0C2F  2C1E               	goto	l2751
  2740     0C30  3A07               	xorlw	7	; case 4
  2741     0C31  1903               	skipnz
  2742     0C32  2C1E               	goto	l2751
  2743     0C33  2C98               	goto	l191
  2744     0C34                     l2757:
  2745                           
  2746                           ;main.c: 324:                     sec = 18;
  2747     0C34  3012               	movlw	18
  2748     0C35  1283               	bcf	3,5	;RP0=0, select bank0
  2749     0C36  1303               	bcf	3,6	;RP1=0, select bank0
  2750     0C37  00EC               	movwf	_sec
  2751     0C38                     l2759:
  2752                           
  2753                           ;main.c: 325:                     min = 0;
  2754     0C38  01EB               	clrf	_min
  2755     0C39  2C3A               	goto	l2761
  2756     0C3A                     l178:	
  2757                           ;main.c: 328:                 case 3:
  2758                           
  2759     0C3A                     l2761:
  2760                           
  2761                           ;main.c: 330:                     sec = 20;
  2762     0C3A  3014               	movlw	20
  2763     0C3B  1283               	bcf	3,5	;RP0=0, select bank0
  2764     0C3C  1303               	bcf	3,6	;RP1=0, select bank0
  2765     0C3D  00EC               	movwf	_sec
  2766                           
  2767                           ;main.c: 331:                     min = 0;
  2768     0C3E  01EB               	clrf	_min
  2769                           
  2770                           ;main.c: 332:             }
  2771     0C3F  2C98               	goto	l191
  2772     0C40                     l2763:
  2773     0C40  087A               	movf	_water_level_index,w
  2774                           
  2775                           ; Switch size 1, requested type "simple"
  2776                           ; Number of cases is 5, Range of values is 0 to 4
  2777                           ; switch strategies available:
  2778                           ; Name         Instructions Cycles
  2779                           ; simple_byte           16     9 (average)
  2780                           ; direct_byte           23     8 (fixed)
  2781                           ; jumptable            260     6 (fixed)
  2782                           ;	Chosen strategy is simple_byte
  2783     0C41  3A00               	xorlw	0	; case 0
  2784     0C42  1903               	skipnz
  2785     0C43  2C3A               	goto	l178
  2786     0C44  3A01               	xorlw	1	; case 1
  2787     0C45  1903               	skipnz
  2788     0C46  2C34               	goto	l2757
  2789     0C47  3A03               	xorlw	3	; case 2
  2790     0C48  1903               	skipnz
  2791     0C49  2C3A               	goto	l2761
  2792     0C4A  3A01               	xorlw	1	; case 3
  2793     0C4B  1903               	skipnz
  2794     0C4C  2C3A               	goto	l2761
  2795     0C4D  3A07               	xorlw	7	; case 4
  2796     0C4E  1903               	skipnz
  2797     0C4F  2C3A               	goto	l2761
  2798     0C50  2C98               	goto	l191
  2799     0C51                     l2765:
  2800                           
  2801                           ;main.c: 335:             sec = 6;
  2802     0C51  3006               	movlw	6
  2803     0C52  1283               	bcf	3,5	;RP0=0, select bank0
  2804     0C53  1303               	bcf	3,6	;RP1=0, select bank0
  2805     0C54  00EC               	movwf	_sec
  2806                           
  2807                           ;main.c: 336:             break;
  2808     0C55  2C98               	goto	l191
  2809     0C56                     l2767:
  2810                           
  2811                           ;main.c: 343:                     sec = 16;
  2812     0C56  3010               	movlw	16
  2813     0C57  1283               	bcf	3,5	;RP0=0, select bank0
  2814     0C58  1303               	bcf	3,6	;RP1=0, select bank0
  2815     0C59  00EC               	movwf	_sec
  2816     0C5A                     l2769:
  2817                           
  2818                           ;main.c: 344:                     min = 0;
  2819     0C5A  01EB               	clrf	_min
  2820     0C5B                     l2771:
  2821                           
  2822                           ;main.c: 347:                     sec = 21;
  2823     0C5B  3015               	movlw	21
  2824     0C5C  1283               	bcf	3,5	;RP0=0, select bank0
  2825     0C5D  1303               	bcf	3,6	;RP1=0, select bank0
  2826     0C5E  00EC               	movwf	_sec
  2827                           
  2828                           ;main.c: 348:                     min = 0;
  2829     0C5F  01EB               	clrf	_min
  2830                           
  2831                           ;main.c: 349:                     break;
  2832     0C60  2C98               	goto	l191
  2833     0C61                     l2777:
  2834     0C61  087A               	movf	_water_level_index,w
  2835                           
  2836                           ; Switch size 1, requested type "simple"
  2837                           ; Number of cases is 5, Range of values is 0 to 4
  2838                           ; switch strategies available:
  2839                           ; Name         Instructions Cycles
  2840                           ; simple_byte           16     9 (average)
  2841                           ; direct_byte           23     8 (fixed)
  2842                           ; jumptable            260     6 (fixed)
  2843                           ;	Chosen strategy is simple_byte
  2844     0C62  3A00               	xorlw	0	; case 0
  2845     0C63  1903               	skipnz
  2846     0C64  2C5B               	goto	l2771
  2847     0C65  3A01               	xorlw	1	; case 1
  2848     0C66  1903               	skipnz
  2849     0C67  2C56               	goto	l2767
  2850     0C68  3A03               	xorlw	3	; case 2
  2851     0C69  1903               	skipnz
  2852     0C6A  2C5B               	goto	l2771
  2853     0C6B  3A01               	xorlw	1	; case 3
  2854     0C6C  1903               	skipnz
  2855     0C6D  2BE1               	goto	l2723
  2856     0C6E  3A07               	xorlw	7	; case 4
  2857     0C6F  1903               	skipnz
  2858     0C70  2BE1               	goto	l2723
  2859     0C71  2C98               	goto	l191
  2860     0C72                     l2781:
  2861     0C72  087B               	movf	_program_no,w
  2862                           
  2863                           ; Switch size 1, requested type "simple"
  2864                           ; Number of cases is 12, Range of values is 0 to 11
  2865                           ; switch strategies available:
  2866                           ; Name         Instructions Cycles
  2867                           ; simple_byte           37    19 (average)
  2868                           ; direct_byte           44     8 (fixed)
  2869                           ; jumptable            260     6 (fixed)
  2870                           ;	Chosen strategy is simple_byte
  2871     0C73  3A00               	xorlw	0	; case 0
  2872     0C74  1903               	skipnz
  2873     0C75  2BAF               	goto	l2709
  2874     0C76  3A01               	xorlw	1	; case 1
  2875     0C77  1903               	skipnz
  2876     0C78  2BD0               	goto	l2721
  2877     0C79  3A03               	xorlw	3	; case 2
  2878     0C7A  1903               	skipnz
  2879     0C7B  2BEB               	goto	l2731
  2880     0C7C  3A01               	xorlw	1	; case 3
  2881     0C7D  1903               	skipnz
  2882     0C7E  2BFC               	goto	l2733
  2883     0C7F  3A07               	xorlw	7	; case 4
  2884     0C80  1903               	skipnz
  2885     0C81  2C03               	goto	l2737
  2886     0C82  3A01               	xorlw	1	; case 5
  2887     0C83  1903               	skipnz
  2888     0C84  2C09               	goto	l163
  2889     0C85  3A03               	xorlw	3	; case 6
  2890     0C86  1903               	skipnz
  2891     0C87  2C0E               	goto	l2743
  2892     0C88  3A01               	xorlw	1	; case 7
  2893     0C89  1903               	skipnz
  2894     0C8A  2C23               	goto	l2755
  2895     0C8B  3A0F               	xorlw	15	; case 8
  2896     0C8C  1903               	skipnz
  2897     0C8D  2C40               	goto	l2763
  2898     0C8E  3A01               	xorlw	1	; case 9
  2899     0C8F  1903               	skipnz
  2900     0C90  2C51               	goto	l2765
  2901     0C91  3A03               	xorlw	3	; case 10
  2902     0C92  1903               	skipnz
  2903     0C93  2C61               	goto	l2777
  2904     0C94  3A01               	xorlw	1	; case 11
  2905     0C95  1903               	skipnz
  2906     0C96  2C61               	goto	l2777
  2907     0C97  2C98               	goto	l191
  2908     0C98                     l191:
  2909     0C98  0008               	return
  2910     0C99                     __end_of_set_time_for_program:
  2911                           
  2912                           	psect	text4
  2913     003D                     __ptext4:	
  2914 ;; *************** function _run_program *****************
  2915 ;; Defined at:
  2916 ;;		line 391 in file "main.c"
  2917 ;; Parameters:    Size  Location     Type
  2918 ;;  key             1    wreg     unsigned char 
  2919 ;; Auto vars:     Size  Location     Type
  2920 ;;  key             1   59[BANK0 ] unsigned char 
  2921 ;; Return value:  Size  Location     Type
  2922 ;;                  1    wreg      void 
  2923 ;; Registers used:
  2924 ;;		wreg, fsr0l, fsr0h, status,2, status,0, btemp+1, pclath, cstack
  2925 ;; Tracked objects:
  2926 ;;		On entry : 0/0
  2927 ;;		On exit  : 0/0
  2928 ;;		Unchanged: 0/0
  2929 ;; Data sizes:     COMMON   BANK0   BANK1   BANK3   BANK2
  2930 ;;      Params:         0       0       0       0       0
  2931 ;;      Locals:         0       1       0       0       0
  2932 ;;      Temps:          0       7       0       0       0
  2933 ;;      Totals:         0       8       0       0       0
  2934 ;;Total ram usage:        8 bytes
  2935 ;; Hardware stack levels used: 1
  2936 ;; Hardware stack levels required when called: 4
  2937 ;; This function calls:
  2938 ;;		___awdiv
  2939 ;;		___awmod
  2940 ;;		___flge
  2941 ;;		___flmul
  2942 ;;		___flsub
  2943 ;;		___fltol
  2944 ;;		___wmul
  2945 ;;		___xxtofl
  2946 ;;		_clcd_print
  2947 ;;		_clcd_putch
  2948 ;;		_clear_screen
  2949 ;;		_door_status_check
  2950 ;; This function is called by:
  2951 ;;		_main
  2952 ;; This function uses a non-reentrant model
  2953 ;;
  2954                           
  2955     003D                     _run_program:	
  2956                           ;psect for function _run_program
  2957                           
  2958                           
  2959                           ;incstack = 0
  2960                           ; Regs used in _run_program: [wreg-fsr0h+status,2+status,0+btemp+1+pclath+cstack]
  2961                           ;run_program@key stored from wreg
  2962     003D  1283               	bcf	3,5	;RP0=0, select bank0
  2963     003E  1303               	bcf	3,6	;RP1=0, select bank0
  2964     003F  00DB               	movwf	run_program@key
  2965     0040                     l3393:
  2966                           
  2967                           ;main.c: 391: void run_program(unsigned char key);main.c: 392: {;main.c: 393:     door_s
      +                          tatus_check();
  2968     0040  160A  118A  268B  120A  118A  	fcall	_door_status_check
  2969     0045                     l3395:
  2970                           
  2971                           ;main.c: 394:     static int total_time, time;;main.c: 395:         if(reset_mode == 0x1
      +                          2)
  2972     0045  3012               	movlw	18
  2973     0046  1283               	bcf	3,5	;RP0=0, select bank0
  2974     0047  1303               	bcf	3,6	;RP1=0, select bank0
  2975     0048  066D               	xorwf	_reset_mode,w
  2976     0049  1D03               	btfss	3,2
  2977     004A  284C               	goto	u4501
  2978     004B  284D               	goto	u4500
  2979     004C                     u4501:
  2980     004C  29E9               	goto	l3437
  2981     004D                     u4500:
  2982     004D                     l3397:
  2983                           
  2984                           ;main.c: 396:         {;main.c: 397:             clear_screen();
  2985     004D  160A  118A  2517  120A  118A  	fcall	_clear_screen
  2986     0052                     l3399:
  2987                           
  2988                           ;main.c: 398:             clcd_print("Prog: ",(0x80 + 0));
  2989     0052  30FC               	movlw	low (STR_25| (0+32768))
  2990     0053  00F6               	movwf	clcd_print@str
  2991     0054  3090               	movlw	high (STR_25| (0+32768))
  2992     0055  00F7               	movwf	clcd_print@str+1
  2993     0056  3080               	movlw	128
  2994     0057  00F8               	movwf	clcd_print@addr
  2995     0058  160A  118A  25DB  120A  118A  	fcall	_clcd_print
  2996     005D                     l3401:
  2997                           
  2998                           ;main.c: 399:             clcd_print(washing_prog[program_no],(0x80 + 6));
  2999     005D  087B               	movf	_program_no,w
  3000     005E  1283               	bcf	3,5	;RP0=0, select bank0
  3001     005F  1303               	bcf	3,6	;RP1=0, select bank0
  3002     0060  00D4               	movwf	??_run_program
  3003     0061  0754               	addwf	??_run_program,w
  3004     0062  3EAA               	addlw	(low (_washing_prog| 0))& (0+255)
  3005     0063  0084               	movwf	4
  3006     0064  1383               	bcf	3,7	;select IRP bank1
  3007     0065  0800               	movf	0,w
  3008     0066  00F6               	movwf	clcd_print@str
  3009     0067  0A84               	incf	4,f
  3010     0068  0800               	movf	0,w
  3011     0069  0384               	decf	4,f
  3012     006A  00F7               	movwf	clcd_print@str+1
  3013     006B  3086               	movlw	134
  3014     006C  00F8               	movwf	clcd_print@addr
  3015     006D  160A  118A  25DB  120A  118A  	fcall	_clcd_print
  3016     0072                     l3403:
  3017                           
  3018                           ;main.c: 400:             clcd_print("Time:",(0xC0 + 0));
  3019     0072  3017               	movlw	low (STR_26| (0+32768))
  3020     0073  00F6               	movwf	clcd_print@str
  3021     0074  3091               	movlw	high (STR_26| (0+32768))
  3022     0075  00F7               	movwf	clcd_print@str+1
  3023     0076  30C0               	movlw	192
  3024     0077  00F8               	movwf	clcd_print@addr
  3025     0078  160A  118A  25DB  120A  118A  	fcall	_clcd_print
  3026     007D                     l3405:
  3027                           
  3028                           ;main.c: 403:             clcd_putch((min/10)+'0',(0xC0 + 6));
  3029     007D  30C6               	movlw	198
  3030     007E  1283               	bcf	3,5	;RP0=0, select bank0
  3031     007F  1303               	bcf	3,6	;RP1=0, select bank0
  3032     0080  00A0               	movwf	clcd_putch@addr
  3033     0081  300A               	movlw	10
  3034     0082  00F2               	movwf	___awdiv@divisor
  3035     0083  3000               	movlw	0
  3036     0084  00F3               	movwf	___awdiv@divisor+1
  3037     0085  086B               	movf	_min,w
  3038     0086  00D4               	movwf	??_run_program
  3039     0087  01D5               	clrf	??_run_program+1
  3040     0088  0854               	movf	??_run_program,w
  3041     0089  00F4               	movwf	___awdiv@dividend
  3042     008A  0855               	movf	??_run_program+1,w
  3043     008B  00F5               	movwf	___awdiv@dividend+1
  3044     008C  160A  118A  2799  120A  118A  	fcall	___awdiv
  3045     0091  0872               	movf	?___awdiv,w
  3046     0092  3E30               	addlw	48
  3047     0093  120A  158A  2009  120A  118A  	fcall	_clcd_putch
  3048     0098                     l3407:
  3049                           
  3050                           ;main.c: 404:             clcd_putch((min%10)+'0',(0xC0 + 7));
  3051     0098  30C7               	movlw	199
  3052     0099  1283               	bcf	3,5	;RP0=0, select bank0
  3053     009A  1303               	bcf	3,6	;RP1=0, select bank0
  3054     009B  00A0               	movwf	clcd_putch@addr
  3055     009C  300A               	movlw	10
  3056     009D  00F2               	movwf	___awmod@divisor
  3057     009E  3000               	movlw	0
  3058     009F  00F3               	movwf	___awmod@divisor+1
  3059     00A0  086B               	movf	_min,w
  3060     00A1  00D4               	movwf	??_run_program
  3061     00A2  01D5               	clrf	??_run_program+1
  3062     00A3  0854               	movf	??_run_program,w
  3063     00A4  00F4               	movwf	___awmod@dividend
  3064     00A5  0855               	movf	??_run_program+1,w
  3065     00A6  00F5               	movwf	___awmod@dividend+1
  3066     00A7  160A  118A  26E1  120A  118A  	fcall	___awmod
  3067     00AC  0872               	movf	?___awmod,w
  3068     00AD  3E30               	addlw	48
  3069     00AE  120A  158A  2009  120A  118A  	fcall	_clcd_putch
  3070     00B3                     l3409:
  3071                           
  3072                           ;main.c: 405:             clcd_putch(':',(0xC0 + 8));
  3073     00B3  30C8               	movlw	200
  3074     00B4  1283               	bcf	3,5	;RP0=0, select bank0
  3075     00B5  1303               	bcf	3,6	;RP1=0, select bank0
  3076     00B6  00A0               	movwf	clcd_putch@addr
  3077     00B7  303A               	movlw	58
  3078     00B8  120A  158A  2009  120A  118A  	fcall	_clcd_putch
  3079     00BD                     l3411:
  3080                           
  3081                           ;main.c: 406:             clcd_putch((sec/10)+'0',(0xC0 + 9));
  3082     00BD  30C9               	movlw	201
  3083     00BE  1283               	bcf	3,5	;RP0=0, select bank0
  3084     00BF  1303               	bcf	3,6	;RP1=0, select bank0
  3085     00C0  00A0               	movwf	clcd_putch@addr
  3086     00C1  300A               	movlw	10
  3087     00C2  00F2               	movwf	___awdiv@divisor
  3088     00C3  3000               	movlw	0
  3089     00C4  00F3               	movwf	___awdiv@divisor+1
  3090     00C5  086C               	movf	_sec,w
  3091     00C6  00D4               	movwf	??_run_program
  3092     00C7  01D5               	clrf	??_run_program+1
  3093     00C8  0854               	movf	??_run_program,w
  3094     00C9  00F4               	movwf	___awdiv@dividend
  3095     00CA  0855               	movf	??_run_program+1,w
  3096     00CB  00F5               	movwf	___awdiv@dividend+1
  3097     00CC  160A  118A  2799  120A  118A  	fcall	___awdiv
  3098     00D1  0872               	movf	?___awdiv,w
  3099     00D2  3E30               	addlw	48
  3100     00D3  120A  158A  2009  120A  118A  	fcall	_clcd_putch
  3101     00D8                     l3413:
  3102                           
  3103                           ;main.c: 407:             clcd_putch((sec%10)+'0',(0xC0 + 10));
  3104     00D8  30CA               	movlw	202
  3105     00D9  1283               	bcf	3,5	;RP0=0, select bank0
  3106     00DA  1303               	bcf	3,6	;RP1=0, select bank0
  3107     00DB  00A0               	movwf	clcd_putch@addr
  3108     00DC  300A               	movlw	10
  3109     00DD  00F2               	movwf	___awmod@divisor
  3110     00DE  3000               	movlw	0
  3111     00DF  00F3               	movwf	___awmod@divisor+1
  3112     00E0  086C               	movf	_sec,w
  3113     00E1  00D4               	movwf	??_run_program
  3114     00E2  01D5               	clrf	??_run_program+1
  3115     00E3  0854               	movf	??_run_program,w
  3116     00E4  00F4               	movwf	___awmod@dividend
  3117     00E5  0855               	movf	??_run_program+1,w
  3118     00E6  00F5               	movwf	___awmod@dividend+1
  3119     00E7  160A  118A  26E1  120A  118A  	fcall	___awmod
  3120     00EC  0872               	movf	?___awmod,w
  3121     00ED  3E30               	addlw	48
  3122     00EE  120A  158A  2009  120A  118A  	fcall	_clcd_putch
  3123                           
  3124                           ;main.c: 408:             clcd_print("(MM:SS)",(0x90 + 5));
  3125     00F3  30F4               	movlw	low (STR_27| (0+32768))
  3126     00F4  00F6               	movwf	clcd_print@str
  3127     00F5  3090               	movlw	high (STR_27| (0+32768))
  3128     00F6  00F7               	movwf	clcd_print@str+1
  3129     00F7  3095               	movlw	149
  3130     00F8  00F8               	movwf	clcd_print@addr
  3131     00F9  160A  118A  25DB  120A  118A  	fcall	_clcd_print
  3132     00FE                     l3415:
  3133                           
  3134                           ;main.c: 409:             _delay((unsigned long)((2000)*(20000000/4000.0)));
  3135     00FE  3033               	movlw	51
  3136     00FF  1283               	bcf	3,5	;RP0=0, select bank0
  3137     0100  1303               	bcf	3,6	;RP1=0, select bank0
  3138     0101  00D6               	movwf	??_run_program+2
  3139     0102  30BB               	movlw	187
  3140     0103  00D5               	movwf	??_run_program+1
  3141     0104  30DF               	movlw	223
  3142     0105  00D4               	movwf	??_run_program
  3143     0106                     u4717:
  3144     0106  0BD4               	decfsz	??_run_program,f
  3145     0107  2906               	goto	u4717
  3146     0108  0BD5               	decfsz	??_run_program+1,f
  3147     0109  2906               	goto	u4717
  3148     010A  0BD6               	decfsz	??_run_program+2,f
  3149     010B  2906               	goto	u4717
  3150     010C                     l3417:
  3151                           
  3152                           ;main.c: 412:             clear_screen();
  3153     010C  160A  118A  2517  120A  118A  	fcall	_clear_screen
  3154     0111                     l3419:
  3155                           
  3156                           ;main.c: 413:             clcd_print("Function -",(0x80 + 0));
  3157     0111  30DF               	movlw	low (STR_22| (0+32768))
  3158     0112  00F6               	movwf	clcd_print@str
  3159     0113  3090               	movlw	high (STR_22| (0+32768))
  3160     0114  00F7               	movwf	clcd_print@str+1
  3161     0115  3080               	movlw	128
  3162     0116  00F8               	movwf	clcd_print@addr
  3163     0117  160A  118A  25DB  120A  118A  	fcall	_clcd_print
  3164     011C                     l3421:
  3165                           
  3166                           ;main.c: 414:             clcd_print("TIME",(0xC0 + 0));
  3167     011C  302F               	movlw	low (STR_23| (0+32768))
  3168     011D  00F6               	movwf	clcd_print@str
  3169     011E  3091               	movlw	high (STR_23| (0+32768))
  3170     011F  00F7               	movwf	clcd_print@str+1
  3171     0120  30C0               	movlw	192
  3172     0121  00F8               	movwf	clcd_print@addr
  3173     0122  160A  118A  25DB  120A  118A  	fcall	_clcd_print
  3174     0127                     l3423:
  3175                           
  3176                           ;main.c: 415:             clcd_print("5-START  6-PAUSE", (0xD0 + 0));
  3177     0127  3044               	movlw	low (STR_24| (0+32768))
  3178     0128  00F6               	movwf	clcd_print@str
  3179     0129  3090               	movlw	high (STR_24| (0+32768))
  3180     012A  00F7               	movwf	clcd_print@str+1
  3181     012B  30D0               	movlw	208
  3182     012C  00F8               	movwf	clcd_print@addr
  3183     012D  160A  118A  25DB  120A  118A  	fcall	_clcd_print
  3184     0132                     l3425:
  3185                           
  3186                           ;main.c: 418:             time = total_time = (min*60+sec);
  3187     0132  1283               	bcf	3,5	;RP0=0, select bank0
  3188     0133  1303               	bcf	3,6	;RP1=0, select bank0
  3189     0134  086B               	movf	_min,w
  3190     0135  00D4               	movwf	??_run_program
  3191     0136  01D5               	clrf	??_run_program+1
  3192     0137  0854               	movf	??_run_program,w
  3193     0138  00F2               	movwf	___wmul@multiplier
  3194     0139  0855               	movf	??_run_program+1,w
  3195     013A  00F3               	movwf	___wmul@multiplier+1
  3196     013B  303C               	movlw	60
  3197     013C  00F4               	movwf	___wmul@multiplicand
  3198     013D  3000               	movlw	0
  3199     013E  00F5               	movwf	___wmul@multiplicand+1
  3200     013F  160A  118A  258D  120A  118A  	fcall	___wmul
  3201     0144  1283               	bcf	3,5	;RP0=0, select bank0
  3202     0145  1303               	bcf	3,6	;RP1=0, select bank0
  3203     0146  086C               	movf	_sec,w
  3204     0147  0772               	addwf	?___wmul,w
  3205     0148  00E3               	movwf	run_program@total_time
  3206     0149  3000               	movlw	0
  3207     014A  1803               	skipnc
  3208     014B  3001               	movlw	1
  3209     014C  0773               	addwf	?___wmul+1,w
  3210     014D  00E4               	movwf	run_program@total_time+1
  3211     014E  0864               	movf	run_program@total_time+1,w
  3212     014F  00E2               	movwf	run_program@time+1
  3213     0150  0863               	movf	run_program@total_time,w
  3214     0151  00E1               	movwf	run_program@time
  3215     0152                     l3427:
  3216                           
  3217                           ;main.c: 419:             wash_time = (int)(total_time *0.4);
  3218     0152  0863               	movf	run_program@total_time,w
  3219     0153  00F2               	movwf	___xxtofl@val
  3220     0154  0864               	movf	run_program@total_time+1,w
  3221     0155  00F3               	movwf	___xxtofl@val+1
  3222     0156  3000               	movlw	0
  3223     0157  1BF3               	btfsc	___xxtofl@val+1,7
  3224     0158  30FF               	movlw	255
  3225     0159  00F4               	movwf	___xxtofl@val+2
  3226     015A  00F5               	movwf	___xxtofl@val+3
  3227     015B  3001               	movlw	1
  3228     015C  120A  118A  2729  120A  118A  	fcall	___xxtofl
  3229     0161  0875               	movf	?___xxtofl+3,w
  3230     0162  1283               	bcf	3,5	;RP0=0, select bank0
  3231     0163  1303               	bcf	3,6	;RP1=0, select bank0
  3232     0164  00AD               	movwf	___flmul@a+3
  3233     0165  0874               	movf	?___xxtofl+2,w
  3234     0166  00AC               	movwf	___flmul@a+2
  3235     0167  0873               	movf	?___xxtofl+1,w
  3236     0168  00AB               	movwf	___flmul@a+1
  3237     0169  0872               	movf	?___xxtofl,w
  3238     016A  00AA               	movwf	___flmul@a
  3239     016B  303E               	movlw	62
  3240     016C  00A9               	movwf	___flmul@b+3
  3241     016D  30CC               	movlw	204
  3242     016E  00A8               	movwf	___flmul@b+2
  3243     016F  30CC               	movlw	204
  3244     0170  00A7               	movwf	___flmul@b+1
  3245     0171  30CD               	movlw	205
  3246     0172  00A6               	movwf	___flmul@b
  3247     0173  120A  118A  23E4  120A  118A  	fcall	___flmul
  3248     0178  1283               	bcf	3,5	;RP0=0, select bank0
  3249     0179  1303               	bcf	3,6	;RP1=0, select bank0
  3250     017A  0829               	movf	?___flmul+3,w
  3251     017B  00C3               	movwf	___fltol@f1+3
  3252     017C  0828               	movf	?___flmul+2,w
  3253     017D  00C2               	movwf	___fltol@f1+2
  3254     017E  0827               	movf	?___flmul+1,w
  3255     017F  00C1               	movwf	___fltol@f1+1
  3256     0180  0826               	movf	?___flmul,w
  3257     0181  00C0               	movwf	___fltol@f1
  3258     0182  120A  158A  2096  120A  118A  	fcall	___fltol
  3259     0187  1283               	bcf	3,5	;RP0=0, select bank0
  3260     0188  1303               	bcf	3,6	;RP1=0, select bank0
  3261     0189  0841               	movf	?___fltol+1,w
  3262     018A  00E8               	movwf	_wash_time+1
  3263     018B  0840               	movf	?___fltol,w
  3264     018C  00E7               	movwf	_wash_time
  3265     018D                     l3429:
  3266                           
  3267                           ;main.c: 420:             rinse_time =(int)(total_time *0.12);
  3268     018D  0863               	movf	run_program@total_time,w
  3269     018E  00F2               	movwf	___xxtofl@val
  3270     018F  0864               	movf	run_program@total_time+1,w
  3271     0190  00F3               	movwf	___xxtofl@val+1
  3272     0191  3000               	movlw	0
  3273     0192  1BF3               	btfsc	___xxtofl@val+1,7
  3274     0193  30FF               	movlw	255
  3275     0194  00F4               	movwf	___xxtofl@val+2
  3276     0195  00F5               	movwf	___xxtofl@val+3
  3277     0196  3001               	movlw	1
  3278     0197  120A  118A  2729  120A  118A  	fcall	___xxtofl
  3279     019C  0875               	movf	?___xxtofl+3,w
  3280     019D  1283               	bcf	3,5	;RP0=0, select bank0
  3281     019E  1303               	bcf	3,6	;RP1=0, select bank0
  3282     019F  00AD               	movwf	___flmul@a+3
  3283     01A0  0874               	movf	?___xxtofl+2,w
  3284     01A1  00AC               	movwf	___flmul@a+2
  3285     01A2  0873               	movf	?___xxtofl+1,w
  3286     01A3  00AB               	movwf	___flmul@a+1
  3287     01A4  0872               	movf	?___xxtofl,w
  3288     01A5  00AA               	movwf	___flmul@a
  3289     01A6  303D               	movlw	61
  3290     01A7  00A9               	movwf	___flmul@b+3
  3291     01A8  30F5               	movlw	245
  3292     01A9  00A8               	movwf	___flmul@b+2
  3293     01AA  30C2               	movlw	194
  3294     01AB  00A7               	movwf	___flmul@b+1
  3295     01AC  308F               	movlw	143
  3296     01AD  00A6               	movwf	___flmul@b
  3297     01AE  120A  118A  23E4  120A  118A  	fcall	___flmul
  3298     01B3  1283               	bcf	3,5	;RP0=0, select bank0
  3299     01B4  1303               	bcf	3,6	;RP1=0, select bank0
  3300     01B5  0829               	movf	?___flmul+3,w
  3301     01B6  00C3               	movwf	___fltol@f1+3
  3302     01B7  0828               	movf	?___flmul+2,w
  3303     01B8  00C2               	movwf	___fltol@f1+2
  3304     01B9  0827               	movf	?___flmul+1,w
  3305     01BA  00C1               	movwf	___fltol@f1+1
  3306     01BB  0826               	movf	?___flmul,w
  3307     01BC  00C0               	movwf	___fltol@f1
  3308     01BD  120A  158A  2096  120A  118A  	fcall	___fltol
  3309     01C2  1283               	bcf	3,5	;RP0=0, select bank0
  3310     01C3  1303               	bcf	3,6	;RP1=0, select bank0
  3311     01C4  0841               	movf	?___fltol+1,w
  3312     01C5  00E6               	movwf	_rinse_time+1
  3313     01C6  0840               	movf	?___fltol,w
  3314     01C7  00E5               	movwf	_rinse_time
  3315     01C8                     l3431:
  3316                           
  3317                           ;main.c: 421:             spin_time = total_time - wash_time - rinse_time;
  3318     01C8  0967               	comf	_wash_time,w
  3319     01C9  00D4               	movwf	??_run_program
  3320     01CA  0968               	comf	_wash_time+1,w
  3321     01CB  00D5               	movwf	??_run_program+1
  3322     01CC  0AD4               	incf	??_run_program,f
  3323     01CD  1903               	skipnz
  3324     01CE  0AD5               	incf	??_run_program+1,f
  3325     01CF  0865               	movf	_rinse_time,w
  3326     01D0  0254               	subwf	??_run_program,w
  3327     01D1  00D6               	movwf	??_run_program+2
  3328     01D2  0866               	movf	_rinse_time+1,w
  3329     01D3  1C03               	skipc
  3330     01D4  0A66               	incf	_rinse_time+1,w
  3331     01D5  0255               	subwf	??_run_program+1,w
  3332     01D6  00D7               	movwf	??_run_program+3
  3333     01D7  0863               	movf	run_program@total_time,w
  3334     01D8  0756               	addwf	??_run_program+2,w
  3335     01D9  1683               	bsf	3,5	;RP0=1, select bank1
  3336     01DA  1303               	bcf	3,6	;RP1=0, select bank1
  3337     01DB  00B4               	movwf	_spin_time^(0+128)
  3338     01DC  1283               	bcf	3,5	;RP0=0, select bank0
  3339     01DD  1303               	bcf	3,6	;RP1=0, select bank0
  3340     01DE  0864               	movf	run_program@total_time+1,w
  3341     01DF  1803               	skipnc
  3342     01E0  0A64               	incf	run_program@total_time+1,w
  3343     01E1  0757               	addwf	??_run_program+3,w
  3344     01E2  1683               	bsf	3,5	;RP0=1, select bank1
  3345     01E3  1303               	bcf	3,6	;RP1=0, select bank1
  3346     01E4  00B5               	movwf	(_spin_time+1)^(0+128)
  3347     01E5                     l3433:
  3348                           
  3349                           ;main.c: 424:             TMR2ON = 1;
  3350     01E5  1283               	bcf	3,5	;RP0=0, select bank0
  3351     01E6  1303               	bcf	3,6	;RP1=0, select bank0
  3352     01E7  1512               	bsf	18,2	;volatile
  3353     01E8                     l3435:
  3354                           
  3355                           ;main.c: 426:             RC2 = 1;
  3356     01E8  1507               	bsf	7,2	;volatile
  3357     01E9                     l3437:
  3358                           
  3359                           ;main.c: 429:     if(key == 0x1F)
  3360     01E9  301F               	movlw	31
  3361     01EA  065B               	xorwf	run_program@key,w
  3362     01EB  1D03               	btfss	3,2
  3363     01EC  29EE               	goto	u4511
  3364     01ED  29EF               	goto	u4510
  3365     01EE                     u4511:
  3366     01EE  29F3               	goto	l3443
  3367     01EF                     u4510:
  3368     01EF                     l3439:
  3369                           
  3370                           ;main.c: 430:     {;main.c: 431:         TMR2ON = 0;
  3371     01EF  1112               	bcf	18,2	;volatile
  3372                           
  3373                           ;main.c: 432:         RC2 = 0;
  3374     01F0  1107               	bcf	7,2	;volatile
  3375     01F1                     l3441:
  3376                           
  3377                           ;main.c: 433:         operation_mode = 0X05;
  3378     01F1  3005               	movlw	5
  3379     01F2  00EE               	movwf	_operation_mode
  3380     01F3                     l3443:
  3381                           
  3382                           ;main.c: 436:     total_time = (min*60+sec);
  3383     01F3  086B               	movf	_min,w
  3384     01F4  00D4               	movwf	??_run_program
  3385     01F5  01D5               	clrf	??_run_program+1
  3386     01F6  0854               	movf	??_run_program,w
  3387     01F7  00F2               	movwf	___wmul@multiplier
  3388     01F8  0855               	movf	??_run_program+1,w
  3389     01F9  00F3               	movwf	___wmul@multiplier+1
  3390     01FA  303C               	movlw	60
  3391     01FB  00F4               	movwf	___wmul@multiplicand
  3392     01FC  3000               	movlw	0
  3393     01FD  00F5               	movwf	___wmul@multiplicand+1
  3394     01FE  160A  118A  258D  120A  118A  	fcall	___wmul
  3395     0203  1283               	bcf	3,5	;RP0=0, select bank0
  3396     0204  1303               	bcf	3,6	;RP1=0, select bank0
  3397     0205  086C               	movf	_sec,w
  3398     0206  0772               	addwf	?___wmul,w
  3399     0207  00E3               	movwf	run_program@total_time
  3400     0208  3000               	movlw	0
  3401     0209  1803               	skipnc
  3402     020A  3001               	movlw	1
  3403     020B  0773               	addwf	?___wmul+1,w
  3404     020C  00E4               	movwf	run_program@total_time+1
  3405     020D                     l3445:
  3406                           
  3407                           ;main.c: 437:     if(program_no <= 7)
  3408     020D  3008               	movlw	8
  3409     020E  027B               	subwf	_program_no,w
  3410     020F  1803               	skipnc
  3411     0210  2A12               	goto	u4521
  3412     0211  2A13               	goto	u4520
  3413     0212                     u4521:
  3414     0212  2A74               	goto	l3457
  3415     0213                     u4520:
  3416     0213                     l3447:
  3417                           
  3418                           ;main.c: 438:     {;main.c: 439:     if(total_time >= (time - wash_time))
  3419     0213  0867               	movf	_wash_time,w
  3420     0214  0261               	subwf	run_program@time,w
  3421     0215  00D4               	movwf	??_run_program
  3422     0216  0868               	movf	_wash_time+1,w
  3423     0217  1C03               	skipc
  3424     0218  0A68               	incf	_wash_time+1,w
  3425     0219  0262               	subwf	run_program@time+1,w
  3426     021A  00D5               	movwf	??_run_program+1
  3427     021B  0864               	movf	run_program@total_time+1,w
  3428     021C  3A80               	xorlw	128
  3429     021D  00D6               	movwf	??_run_program+2
  3430     021E  0855               	movf	??_run_program+1,w
  3431     021F  3A80               	xorlw	128
  3432     0220  0256               	subwf	??_run_program+2,w
  3433     0221  1D03               	skipz
  3434     0222  2A25               	goto	u4535
  3435     0223  0854               	movf	??_run_program,w
  3436     0224  0263               	subwf	run_program@total_time,w
  3437     0225                     u4535:
  3438     0225  1C03               	skipc
  3439     0226  2A28               	goto	u4531
  3440     0227  2A29               	goto	u4530
  3441     0228                     u4531:
  3442     0228  2A35               	goto	l3451
  3443     0229                     u4530:
  3444     0229                     l3449:
  3445                           
  3446                           ;main.c: 440:     {;main.c: 441:         clcd_print("Wash",(0x80 + 11));
  3447     0229  3039               	movlw	low (STR_31| (0+32768))
  3448     022A  00F6               	movwf	clcd_print@str
  3449     022B  3091               	movlw	high (STR_31| (0+32768))
  3450     022C  00F7               	movwf	clcd_print@str+1
  3451     022D  308B               	movlw	139
  3452     022E  00F8               	movwf	clcd_print@addr
  3453     022F  160A  118A  25DB  120A  118A  	fcall	_clcd_print
  3454                           
  3455                           ;main.c: 442:     }
  3456     0234  2B29               	goto	l3471
  3457     0235                     l3451:
  3458     0235  1283               	bcf	3,5	;RP0=0, select bank0
  3459     0236  1303               	bcf	3,6	;RP1=0, select bank0
  3460     0237  0967               	comf	_wash_time,w
  3461     0238  00D4               	movwf	??_run_program
  3462     0239  0968               	comf	_wash_time+1,w
  3463     023A  00D5               	movwf	??_run_program+1
  3464     023B  0AD4               	incf	??_run_program,f
  3465     023C  1903               	skipnz
  3466     023D  0AD5               	incf	??_run_program+1,f
  3467     023E  0865               	movf	_rinse_time,w
  3468     023F  0254               	subwf	??_run_program,w
  3469     0240  00D6               	movwf	??_run_program+2
  3470     0241  0866               	movf	_rinse_time+1,w
  3471     0242  1C03               	skipc
  3472     0243  0A66               	incf	_rinse_time+1,w
  3473     0244  0255               	subwf	??_run_program+1,w
  3474     0245  00D7               	movwf	??_run_program+3
  3475     0246  0861               	movf	run_program@time,w
  3476     0247  0756               	addwf	??_run_program+2,w
  3477     0248  00D8               	movwf	??_run_program+4
  3478     0249  0862               	movf	run_program@time+1,w
  3479     024A  1803               	skipnc
  3480     024B  0A62               	incf	run_program@time+1,w
  3481     024C  0757               	addwf	??_run_program+3,w
  3482     024D  00D9               	movwf	??_run_program+5
  3483     024E  0864               	movf	run_program@total_time+1,w
  3484     024F  3A80               	xorlw	128
  3485     0250  00DA               	movwf	??_run_program+6
  3486     0251  0859               	movf	??_run_program+5,w
  3487     0252  3A80               	xorlw	128
  3488     0253  025A               	subwf	??_run_program+6,w
  3489     0254  1D03               	skipz
  3490     0255  2A58               	goto	u4545
  3491     0256  0858               	movf	??_run_program+4,w
  3492     0257  0263               	subwf	run_program@total_time,w
  3493     0258                     u4545:
  3494     0258  1C03               	skipc
  3495     0259  2A5B               	goto	u4541
  3496     025A  2A5C               	goto	u4540
  3497     025B                     u4541:
  3498     025B  2A68               	goto	l3455
  3499     025C                     u4540:
  3500     025C                     l3453:
  3501                           
  3502                           ;main.c: 444:        {;main.c: 445:            clcd_print("Rinse",(0x80 + 11));
  3503     025C  301D               	movlw	low (STR_32| (0+32768))
  3504     025D  00F6               	movwf	clcd_print@str
  3505     025E  3091               	movlw	high (STR_32| (0+32768))
  3506     025F  00F7               	movwf	clcd_print@str+1
  3507     0260  308B               	movlw	139
  3508     0261  00F8               	movwf	clcd_print@addr
  3509     0262  160A  118A  25DB  120A  118A  	fcall	_clcd_print
  3510                           
  3511                           ;main.c: 446:        }
  3512     0267  2B29               	goto	l3471
  3513     0268                     l3455:
  3514                           
  3515                           ;main.c: 448:            clcd_print("Spin ",(0x80 + 11));
  3516     0268  3011               	movlw	low (STR_33| (0+32768))
  3517     0269  00F6               	movwf	clcd_print@str
  3518     026A  3091               	movlw	high (STR_33| (0+32768))
  3519     026B  00F7               	movwf	clcd_print@str+1
  3520     026C  308B               	movlw	139
  3521     026D  00F8               	movwf	clcd_print@addr
  3522     026E  160A  118A  25DB  120A  118A  	fcall	_clcd_print
  3523     0273  2B29               	goto	l3471
  3524     0274                     l3457:
  3525     0274  3008               	movlw	8
  3526     0275  067B               	xorwf	_program_no,w
  3527     0276  1D03               	btfss	3,2
  3528     0277  2A79               	goto	u4551
  3529     0278  2A7A               	goto	u4550
  3530     0279                     u4551:
  3531     0279  2B0C               	goto	l3465
  3532     027A                     u4550:
  3533     027A                     l3459:
  3534                           
  3535                           ;main.c: 451:     {;main.c: 452:         if(total_time >= (time - (0.40 * time)) )
  3536     027A  0863               	movf	run_program@total_time,w
  3537     027B  00F2               	movwf	___xxtofl@val
  3538     027C  0864               	movf	run_program@total_time+1,w
  3539     027D  00F3               	movwf	___xxtofl@val+1
  3540     027E  3000               	movlw	0
  3541     027F  1BF3               	btfsc	___xxtofl@val+1,7
  3542     0280  30FF               	movlw	255
  3543     0281  00F4               	movwf	___xxtofl@val+2
  3544     0282  00F5               	movwf	___xxtofl@val+3
  3545     0283  3001               	movlw	1
  3546     0284  120A  118A  2729  120A  118A  	fcall	___xxtofl
  3547     0289  0875               	movf	?___xxtofl+3,w
  3548     028A  1283               	bcf	3,5	;RP0=0, select bank0
  3549     028B  1303               	bcf	3,6	;RP1=0, select bank0
  3550     028C  00CB               	movwf	___flge@ff1+3
  3551     028D  0874               	movf	?___xxtofl+2,w
  3552     028E  00CA               	movwf	___flge@ff1+2
  3553     028F  0873               	movf	?___xxtofl+1,w
  3554     0290  00C9               	movwf	___flge@ff1+1
  3555     0291  0872               	movf	?___xxtofl,w
  3556     0292  00C8               	movwf	___flge@ff1
  3557     0293  0861               	movf	run_program@time,w
  3558     0294  00F2               	movwf	___xxtofl@val
  3559     0295  0862               	movf	run_program@time+1,w
  3560     0296  00F3               	movwf	___xxtofl@val+1
  3561     0297  3000               	movlw	0
  3562     0298  1BF3               	btfsc	___xxtofl@val+1,7
  3563     0299  30FF               	movlw	255
  3564     029A  00F4               	movwf	___xxtofl@val+2
  3565     029B  00F5               	movwf	___xxtofl@val+3
  3566     029C  3001               	movlw	1
  3567     029D  120A  118A  2729  120A  118A  	fcall	___xxtofl
  3568     02A2  0875               	movf	?___xxtofl+3,w
  3569     02A3  1283               	bcf	3,5	;RP0=0, select bank0
  3570     02A4  1303               	bcf	3,6	;RP1=0, select bank0
  3571     02A5  00C7               	movwf	___flsub@b+3
  3572     02A6  0874               	movf	?___xxtofl+2,w
  3573     02A7  00C6               	movwf	___flsub@b+2
  3574     02A8  0873               	movf	?___xxtofl+1,w
  3575     02A9  00C5               	movwf	___flsub@b+1
  3576     02AA  0872               	movf	?___xxtofl,w
  3577     02AB  00C4               	movwf	___flsub@b
  3578     02AC  0861               	movf	run_program@time,w
  3579     02AD  00F2               	movwf	___xxtofl@val
  3580     02AE  0862               	movf	run_program@time+1,w
  3581     02AF  00F3               	movwf	___xxtofl@val+1
  3582     02B0  3000               	movlw	0
  3583     02B1  1BF3               	btfsc	___xxtofl@val+1,7
  3584     02B2  30FF               	movlw	255
  3585     02B3  00F4               	movwf	___xxtofl@val+2
  3586     02B4  00F5               	movwf	___xxtofl@val+3
  3587     02B5  3001               	movlw	1
  3588     02B6  120A  118A  2729  120A  118A  	fcall	___xxtofl
  3589     02BB  0875               	movf	?___xxtofl+3,w
  3590     02BC  1283               	bcf	3,5	;RP0=0, select bank0
  3591     02BD  1303               	bcf	3,6	;RP1=0, select bank0
  3592     02BE  00AD               	movwf	___flmul@a+3
  3593     02BF  0874               	movf	?___xxtofl+2,w
  3594     02C0  00AC               	movwf	___flmul@a+2
  3595     02C1  0873               	movf	?___xxtofl+1,w
  3596     02C2  00AB               	movwf	___flmul@a+1
  3597     02C3  0872               	movf	?___xxtofl,w
  3598     02C4  00AA               	movwf	___flmul@a
  3599     02C5  303E               	movlw	62
  3600     02C6  00A9               	movwf	___flmul@b+3
  3601     02C7  30CC               	movlw	204
  3602     02C8  00A8               	movwf	___flmul@b+2
  3603     02C9  30CC               	movlw	204
  3604     02CA  00A7               	movwf	___flmul@b+1
  3605     02CB  30CD               	movlw	205
  3606     02CC  00A6               	movwf	___flmul@b
  3607     02CD  120A  118A  23E4  120A  118A  	fcall	___flmul
  3608     02D2  1283               	bcf	3,5	;RP0=0, select bank0
  3609     02D3  1303               	bcf	3,6	;RP1=0, select bank0
  3610     02D4  0829               	movf	?___flmul+3,w
  3611     02D5  00C3               	movwf	___flsub@a+3
  3612     02D6  0828               	movf	?___flmul+2,w
  3613     02D7  00C2               	movwf	___flsub@a+2
  3614     02D8  0827               	movf	?___flmul+1,w
  3615     02D9  00C1               	movwf	___flsub@a+1
  3616     02DA  0826               	movf	?___flmul,w
  3617     02DB  00C0               	movwf	___flsub@a
  3618     02DC  160A  118A  2569  120A  118A  	fcall	___flsub
  3619     02E1  1283               	bcf	3,5	;RP0=0, select bank0
  3620     02E2  1303               	bcf	3,6	;RP1=0, select bank0
  3621     02E3  0843               	movf	?___flsub+3,w
  3622     02E4  00CF               	movwf	___flge@ff2+3
  3623     02E5  0842               	movf	?___flsub+2,w
  3624     02E6  00CE               	movwf	___flge@ff2+2
  3625     02E7  0841               	movf	?___flsub+1,w
  3626     02E8  00CD               	movwf	___flge@ff2+1
  3627     02E9  0840               	movf	?___flsub,w
  3628     02EA  00CC               	movwf	___flge@ff2
  3629     02EB  120A  158A  210E  120A  118A  	fcall	___flge
  3630     02F0  1C03               	btfss	3,0
  3631     02F1  2AF3               	goto	u4561
  3632     02F2  2AF4               	goto	u4560
  3633     02F3                     u4561:
  3634     02F3  2B00               	goto	l3463
  3635     02F4                     u4560:
  3636     02F4                     l3461:
  3637                           
  3638                           ;main.c: 453:         {;main.c: 454:           clcd_print("Rinse",(0x80 + 11));
  3639     02F4  301D               	movlw	low (STR_32| (0+32768))
  3640     02F5  00F6               	movwf	clcd_print@str
  3641     02F6  3091               	movlw	high (STR_32| (0+32768))
  3642     02F7  00F7               	movwf	clcd_print@str+1
  3643     02F8  308B               	movlw	139
  3644     02F9  00F8               	movwf	clcd_print@addr
  3645     02FA  160A  118A  25DB  120A  118A  	fcall	_clcd_print
  3646                           
  3647                           ;main.c: 455:         }
  3648     02FF  2B29               	goto	l3471
  3649     0300                     l3463:
  3650                           
  3651                           ;main.c: 457:            clcd_print("Spin ",(0x80 + 11));
  3652     0300  3011               	movlw	low (STR_33| (0+32768))
  3653     0301  00F6               	movwf	clcd_print@str
  3654     0302  3091               	movlw	high (STR_33| (0+32768))
  3655     0303  00F7               	movwf	clcd_print@str+1
  3656     0304  308B               	movlw	139
  3657     0305  00F8               	movwf	clcd_print@addr
  3658     0306  160A  118A  25DB  120A  118A  	fcall	_clcd_print
  3659     030B  2B29               	goto	l3471
  3660     030C                     l3465:
  3661     030C  3009               	movlw	9
  3662     030D  067B               	xorwf	_program_no,w
  3663     030E  1D03               	btfss	3,2
  3664     030F  2B11               	goto	u4571
  3665     0310  2B12               	goto	u4570
  3666     0311                     u4571:
  3667     0311  2B1E               	goto	l3469
  3668     0312                     u4570:
  3669     0312                     l3467:
  3670                           
  3671                           ;main.c: 460:     {;main.c: 461:         clcd_print("Rinse",(0x80 + 11));
  3672     0312  301D               	movlw	low (STR_32| (0+32768))
  3673     0313  00F6               	movwf	clcd_print@str
  3674     0314  3091               	movlw	high (STR_32| (0+32768))
  3675     0315  00F7               	movwf	clcd_print@str+1
  3676     0316  308B               	movlw	139
  3677     0317  00F8               	movwf	clcd_print@addr
  3678     0318  160A  118A  25DB  120A  118A  	fcall	_clcd_print
  3679                           
  3680                           ;main.c: 462:     }
  3681     031D  2B29               	goto	l3471
  3682     031E                     l3469:
  3683                           
  3684                           ;main.c: 464:     {;main.c: 465:         clcd_print("Wash",(0x80 + 11));
  3685     031E  3039               	movlw	low (STR_31| (0+32768))
  3686     031F  00F6               	movwf	clcd_print@str
  3687     0320  3091               	movlw	high (STR_31| (0+32768))
  3688     0321  00F7               	movwf	clcd_print@str+1
  3689     0322  308B               	movlw	139
  3690     0323  00F8               	movwf	clcd_print@addr
  3691     0324  160A  118A  25DB  120A  118A  	fcall	_clcd_print
  3692     0329                     l3471:
  3693                           
  3694                           ;main.c: 468:     clcd_putch((min/10)+'0',(0xC0 + 6));
  3695     0329  30C6               	movlw	198
  3696     032A  1283               	bcf	3,5	;RP0=0, select bank0
  3697     032B  1303               	bcf	3,6	;RP1=0, select bank0
  3698     032C  00A0               	movwf	clcd_putch@addr
  3699     032D  300A               	movlw	10
  3700     032E  00F2               	movwf	___awdiv@divisor
  3701     032F  3000               	movlw	0
  3702     0330  00F3               	movwf	___awdiv@divisor+1
  3703     0331  086B               	movf	_min,w
  3704     0332  00D4               	movwf	??_run_program
  3705     0333  01D5               	clrf	??_run_program+1
  3706     0334  0854               	movf	??_run_program,w
  3707     0335  00F4               	movwf	___awdiv@dividend
  3708     0336  0855               	movf	??_run_program+1,w
  3709     0337  00F5               	movwf	___awdiv@dividend+1
  3710     0338  160A  118A  2799  120A  118A  	fcall	___awdiv
  3711     033D  0872               	movf	?___awdiv,w
  3712     033E  3E30               	addlw	48
  3713     033F  120A  158A  2009  120A  118A  	fcall	_clcd_putch
  3714     0344                     l3473:
  3715                           
  3716                           ;main.c: 469:     clcd_putch((min%10)+'0',(0xC0 + 7));
  3717     0344  30C7               	movlw	199
  3718     0345  1283               	bcf	3,5	;RP0=0, select bank0
  3719     0346  1303               	bcf	3,6	;RP1=0, select bank0
  3720     0347  00A0               	movwf	clcd_putch@addr
  3721     0348  300A               	movlw	10
  3722     0349  00F2               	movwf	___awmod@divisor
  3723     034A  3000               	movlw	0
  3724     034B  00F3               	movwf	___awmod@divisor+1
  3725     034C  086B               	movf	_min,w
  3726     034D  00D4               	movwf	??_run_program
  3727     034E  01D5               	clrf	??_run_program+1
  3728     034F  0854               	movf	??_run_program,w
  3729     0350  00F4               	movwf	___awmod@dividend
  3730     0351  0855               	movf	??_run_program+1,w
  3731     0352  00F5               	movwf	___awmod@dividend+1
  3732     0353  160A  118A  26E1  120A  118A  	fcall	___awmod
  3733     0358  0872               	movf	?___awmod,w
  3734     0359  3E30               	addlw	48
  3735     035A  120A  158A  2009  120A  118A  	fcall	_clcd_putch
  3736     035F                     l3475:
  3737                           
  3738                           ;main.c: 470:     clcd_putch(':',(0xC0 + 8));
  3739     035F  30C8               	movlw	200
  3740     0360  1283               	bcf	3,5	;RP0=0, select bank0
  3741     0361  1303               	bcf	3,6	;RP1=0, select bank0
  3742     0362  00A0               	movwf	clcd_putch@addr
  3743     0363  303A               	movlw	58
  3744     0364  120A  158A  2009  120A  118A  	fcall	_clcd_putch
  3745     0369                     l3477:
  3746                           
  3747                           ;main.c: 471:     clcd_putch((sec/10)+'0',(0xC0 + 9));
  3748     0369  30C9               	movlw	201
  3749     036A  1283               	bcf	3,5	;RP0=0, select bank0
  3750     036B  1303               	bcf	3,6	;RP1=0, select bank0
  3751     036C  00A0               	movwf	clcd_putch@addr
  3752     036D  300A               	movlw	10
  3753     036E  00F2               	movwf	___awdiv@divisor
  3754     036F  3000               	movlw	0
  3755     0370  00F3               	movwf	___awdiv@divisor+1
  3756     0371  086C               	movf	_sec,w
  3757     0372  00D4               	movwf	??_run_program
  3758     0373  01D5               	clrf	??_run_program+1
  3759     0374  0854               	movf	??_run_program,w
  3760     0375  00F4               	movwf	___awdiv@dividend
  3761     0376  0855               	movf	??_run_program+1,w
  3762     0377  00F5               	movwf	___awdiv@dividend+1
  3763     0378  160A  118A  2799  120A  118A  	fcall	___awdiv
  3764     037D  0872               	movf	?___awdiv,w
  3765     037E  3E30               	addlw	48
  3766     037F  120A  158A  2009  120A  118A  	fcall	_clcd_putch
  3767     0384                     l3479:
  3768                           
  3769                           ;main.c: 472:     clcd_putch((sec%10)+'0',(0xC0 + 10));
  3770     0384  30CA               	movlw	202
  3771     0385  1283               	bcf	3,5	;RP0=0, select bank0
  3772     0386  1303               	bcf	3,6	;RP1=0, select bank0
  3773     0387  00A0               	movwf	clcd_putch@addr
  3774     0388  300A               	movlw	10
  3775     0389  00F2               	movwf	___awmod@divisor
  3776     038A  3000               	movlw	0
  3777     038B  00F3               	movwf	___awmod@divisor+1
  3778     038C  086C               	movf	_sec,w
  3779     038D  00D4               	movwf	??_run_program
  3780     038E  01D5               	clrf	??_run_program+1
  3781     038F  0854               	movf	??_run_program,w
  3782     0390  00F4               	movwf	___awmod@dividend
  3783     0391  0855               	movf	??_run_program+1,w
  3784     0392  00F5               	movwf	___awmod@dividend+1
  3785     0393  160A  118A  26E1  120A  118A  	fcall	___awmod
  3786     0398  0872               	movf	?___awmod,w
  3787     0399  3E30               	addlw	48
  3788     039A  120A  158A  2009  120A  118A  	fcall	_clcd_putch
  3789     039F                     l3481:
  3790                           
  3791                           ;main.c: 474:     if(sec == 0 && min == 0)
  3792     039F  1283               	bcf	3,5	;RP0=0, select bank0
  3793     03A0  1303               	bcf	3,6	;RP1=0, select bank0
  3794     03A1  086C               	movf	_sec,w
  3795     03A2  1D03               	btfss	3,2
  3796     03A3  2BA5               	goto	u4581
  3797     03A4  2BA6               	goto	u4580
  3798     03A5                     u4581:
  3799     03A5  2BE3               	goto	l220
  3800     03A6                     u4580:
  3801     03A6                     l3483:
  3802     03A6  086B               	movf	_min,w
  3803     03A7  1D03               	btfss	3,2
  3804     03A8  2BAA               	goto	u4591
  3805     03A9  2BAB               	goto	u4590
  3806     03AA                     u4591:
  3807     03AA  2BE3               	goto	l220
  3808     03AB                     u4590:
  3809     03AB                     l3485:
  3810                           
  3811                           ;main.c: 475:     {;main.c: 477:           TMR2ON = 0;
  3812     03AB  1112               	bcf	18,2	;volatile
  3813                           
  3814                           ;main.c: 479:           RC2 =0;
  3815     03AC  1107               	bcf	7,2	;volatile
  3816                           
  3817                           ;main.c: 481:           RC1 = 1;
  3818     03AD  1487               	bsf	7,1	;volatile
  3819     03AE                     l3487:
  3820                           
  3821                           ;main.c: 483:           clear_screen();
  3822     03AE  160A  118A  2517  120A  118A  	fcall	_clear_screen
  3823     03B3                     l3489:
  3824                           
  3825                           ;main.c: 484:           clcd_print("Prog. Completed", (0x80 + 0));
  3826     03B3  3066               	movlw	low (STR_38| (0+32768))
  3827     03B4  00F6               	movwf	clcd_print@str
  3828     03B5  3090               	movlw	high (STR_38| (0+32768))
  3829     03B6  00F7               	movwf	clcd_print@str+1
  3830     03B7  3080               	movlw	128
  3831     03B8  00F8               	movwf	clcd_print@addr
  3832     03B9  160A  118A  25DB  120A  118A  	fcall	_clcd_print
  3833     03BE                     l3491:
  3834                           
  3835                           ;main.c: 485:           clcd_print("Remove Cloths",(0xC0 + 0));
  3836     03BE  3086               	movlw	low (STR_39| (0+32768))
  3837     03BF  00F6               	movwf	clcd_print@str
  3838     03C0  3090               	movlw	high (STR_39| (0+32768))
  3839     03C1  00F7               	movwf	clcd_print@str+1
  3840     03C2  30C0               	movlw	192
  3841     03C3  00F8               	movwf	clcd_print@addr
  3842     03C4  160A  118A  25DB  120A  118A  	fcall	_clcd_print
  3843     03C9                     l3493:
  3844                           
  3845                           ;main.c: 486:           _delay((unsigned long)((2000)*(20000000/4000.0)));
  3846     03C9  3033               	movlw	51
  3847     03CA  1283               	bcf	3,5	;RP0=0, select bank0
  3848     03CB  1303               	bcf	3,6	;RP1=0, select bank0
  3849     03CC  00D6               	movwf	??_run_program+2
  3850     03CD  30BB               	movlw	187
  3851     03CE  00D5               	movwf	??_run_program+1
  3852     03CF  30DF               	movlw	223
  3853     03D0  00D4               	movwf	??_run_program
  3854     03D1                     u4727:
  3855     03D1  0BD4               	decfsz	??_run_program,f
  3856     03D2  2BD1               	goto	u4727
  3857     03D3  0BD5               	decfsz	??_run_program+1,f
  3858     03D4  2BD1               	goto	u4727
  3859     03D5  0BD6               	decfsz	??_run_program+2,f
  3860     03D6  2BD1               	goto	u4727
  3861     03D7                     l3495:
  3862                           
  3863                           ;main.c: 487:           RC1 = 0;
  3864     03D7  1283               	bcf	3,5	;RP0=0, select bank0
  3865     03D8  1303               	bcf	3,6	;RP1=0, select bank0
  3866     03D9  1087               	bcf	7,1	;volatile
  3867     03DA                     l3497:
  3868                           
  3869                           ;main.c: 488:           operation_mode = 0X01;
  3870     03DA  01EE               	clrf	_operation_mode
  3871     03DB  0AEE               	incf	_operation_mode,f
  3872     03DC                     l3499:
  3873                           
  3874                           ;main.c: 489:           reset_mode = 0X10;
  3875     03DC  3010               	movlw	16
  3876     03DD  00ED               	movwf	_reset_mode
  3877                           
  3878                           ;main.c: 490:           clear_screen();
  3879     03DE  160A  118A  2517  120A  118A  	fcall	_clear_screen
  3880     03E3                     l220:
  3881     03E3  0008               	return
  3882     03E4                     __end_of_run_program:
  3883                           
  3884                           	psect	text5
  3885     168B                     __ptext5:	
  3886 ;; *************** function _door_status_check *****************
  3887 ;; Defined at:
  3888 ;;		line 360 in file "main.c"
  3889 ;; Parameters:    Size  Location     Type
  3890 ;;		None
  3891 ;; Auto vars:     Size  Location     Type
  3892 ;;		None
  3893 ;; Return value:  Size  Location     Type
  3894 ;;                  1    wreg      void 
  3895 ;; Registers used:
  3896 ;;		wreg, fsr0l, fsr0h, status,2, status,0, btemp+1, pclath, cstack
  3897 ;; Tracked objects:
  3898 ;;		On entry : 0/0
  3899 ;;		On exit  : 0/0
  3900 ;;		Unchanged: 0/0
  3901 ;; Data sizes:     COMMON   BANK0   BANK1   BANK3   BANK2
  3902 ;;      Params:         0       0       0       0       0
  3903 ;;      Locals:         0       0       0       0       0
  3904 ;;      Temps:          0       0       0       0       0
  3905 ;;      Totals:         0       0       0       0       0
  3906 ;;Total ram usage:        0 bytes
  3907 ;; Hardware stack levels used: 1
  3908 ;; Hardware stack levels required when called: 3
  3909 ;; This function calls:
  3910 ;;		_clcd_print
  3911 ;;		_clear_screen
  3912 ;; This function is called by:
  3913 ;;		_run_program
  3914 ;; This function uses a non-reentrant model
  3915 ;;
  3916                           
  3917     168B                     _door_status_check:	
  3918                           ;psect for function _door_status_check
  3919                           
  3920     168B                     l3119:	
  3921                           ;incstack = 0
  3922                           ; Regs used in _door_status_check: [wreg-fsr0h+status,2+status,0+btemp+1+pclath+cstack]
  3923                           
  3924                           
  3925                           ;main.c: 362:     if(RB0 == 0)
  3926     168B  1283               	bcf	3,5	;RP0=0, select bank0
  3927     168C  1303               	bcf	3,6	;RP1=0, select bank0
  3928     168D  1806               	btfsc	6,0	;volatile
  3929     168E  2E90               	goto	u3971
  3930     168F  2E91               	goto	u3970
  3931     1690                     u3971:
  3932     1690  2EE0               	goto	l198
  3933     1691                     u3970:
  3934     1691                     l3121:
  3935                           
  3936                           ;main.c: 363:     {;main.c: 365:         RC1 = 1;
  3937     1691  1487               	bsf	7,1	;volatile
  3938                           
  3939                           ;main.c: 366:         RC2 = 0;
  3940     1692  1107               	bcf	7,2	;volatile
  3941                           
  3942                           ;main.c: 367:         TMR2ON = 0;
  3943     1693  1112               	bcf	18,2	;volatile
  3944     1694                     l3123:
  3945                           
  3946                           ;main.c: 369:         clear_screen();
  3947     1694  160A  118A  2517  160A  118A  	fcall	_clear_screen
  3948     1699                     l3125:
  3949                           
  3950                           ;main.c: 370:         clcd_print("DOOR : OPEN", (0x80 + 0));
  3951     1699  30C7               	movlw	low (STR_20| (0+32768))
  3952     169A  00F6               	movwf	clcd_print@str
  3953     169B  3090               	movlw	high (STR_20| (0+32768))
  3954     169C  00F7               	movwf	clcd_print@str+1
  3955     169D  3080               	movlw	128
  3956     169E  00F8               	movwf	clcd_print@addr
  3957     169F  160A  118A  25DB  160A  118A  	fcall	_clcd_print
  3958     16A4                     l3127:
  3959                           
  3960                           ;main.c: 371:         clcd_print("Please Close", (0x90 + 0));
  3961     16A4  30A1               	movlw	low (STR_21| (0+32768))
  3962     16A5  00F6               	movwf	clcd_print@str
  3963     16A6  3090               	movlw	high (STR_21| (0+32768))
  3964     16A7  00F7               	movwf	clcd_print@str+1
  3965     16A8  3090               	movlw	144
  3966     16A9  00F8               	movwf	clcd_print@addr
  3967     16AA  160A  118A  25DB  160A  118A  	fcall	_clcd_print
  3968     16AF                     l195:	
  3969                           ;main.c: 375:         {;main.c: 377:         }
  3970                           
  3971                           
  3972                           ;main.c: 374:         while( RB0 == 0 )
  3973     16AF  1283               	bcf	3,5	;RP0=0, select bank0
  3974     16B0  1303               	bcf	3,6	;RP1=0, select bank0
  3975     16B1  1C06               	btfss	6,0	;volatile
  3976     16B2  2EB4               	goto	u3981
  3977     16B3  2EB5               	goto	u3980
  3978     16B4                     u3981:
  3979     16B4  2EAF               	goto	l195
  3980     16B5                     u3980:
  3981     16B5                     l3129:
  3982                           
  3983                           ;main.c: 378:         clear_screen();
  3984     16B5  160A  118A  2517  160A  118A  	fcall	_clear_screen
  3985     16BA                     l3131:
  3986                           
  3987                           ;main.c: 380:         RC2 = 1;
  3988     16BA  1283               	bcf	3,5	;RP0=0, select bank0
  3989     16BB  1303               	bcf	3,6	;RP1=0, select bank0
  3990     16BC  1507               	bsf	7,2	;volatile
  3991     16BD                     l3133:
  3992                           
  3993                           ;main.c: 381:         TMR2ON = 1;
  3994     16BD  1512               	bsf	18,2	;volatile
  3995     16BE                     l3135:
  3996                           
  3997                           ;main.c: 383:         RC1 = 0;
  3998     16BE  1087               	bcf	7,1	;volatile
  3999     16BF                     l3137:
  4000                           
  4001                           ;main.c: 384:         clcd_print("Function -", (0x80 + 0));
  4002     16BF  30DF               	movlw	low (STR_22| (0+32768))
  4003     16C0  00F6               	movwf	clcd_print@str
  4004     16C1  3090               	movlw	high (STR_22| (0+32768))
  4005     16C2  00F7               	movwf	clcd_print@str+1
  4006     16C3  3080               	movlw	128
  4007     16C4  00F8               	movwf	clcd_print@addr
  4008     16C5  160A  118A  25DB  160A  118A  	fcall	_clcd_print
  4009     16CA                     l3139:
  4010                           
  4011                           ;main.c: 385:         clcd_print("TIME", (0xC0 + 0));
  4012     16CA  302F               	movlw	low (STR_23| (0+32768))
  4013     16CB  00F6               	movwf	clcd_print@str
  4014     16CC  3091               	movlw	high (STR_23| (0+32768))
  4015     16CD  00F7               	movwf	clcd_print@str+1
  4016     16CE  30C0               	movlw	192
  4017     16CF  00F8               	movwf	clcd_print@addr
  4018     16D0  160A  118A  25DB  160A  118A  	fcall	_clcd_print
  4019     16D5                     l3141:
  4020                           
  4021                           ;main.c: 386:         clcd_print("5-START  6-PAUSE", (0xD0 + 0));
  4022     16D5  3044               	movlw	low (STR_24| (0+32768))
  4023     16D6  00F6               	movwf	clcd_print@str
  4024     16D7  3090               	movlw	high (STR_24| (0+32768))
  4025     16D8  00F7               	movwf	clcd_print@str+1
  4026     16D9  30D0               	movlw	208
  4027     16DA  00F8               	movwf	clcd_print@addr
  4028     16DB  160A  118A  25DB  160A  118A  	fcall	_clcd_print
  4029     16E0                     l198:
  4030     16E0  0008               	return
  4031     16E1                     __end_of_door_status_check:
  4032                           
  4033                           	psect	text6
  4034     1517                     __ptext6:	
  4035 ;; *************** function _clear_screen *****************
  4036 ;; Defined at:
  4037 ;;		line 120 in file "main.c"
  4038 ;; Parameters:    Size  Location     Type
  4039 ;;		None
  4040 ;; Auto vars:     Size  Location     Type
  4041 ;;		None
  4042 ;; Return value:  Size  Location     Type
  4043 ;;                  1    wreg      void 
  4044 ;; Registers used:
  4045 ;;		wreg, status,2, status,0, pclath, cstack
  4046 ;; Tracked objects:
  4047 ;;		On entry : 0/0
  4048 ;;		On exit  : 0/0
  4049 ;;		Unchanged: 0/0
  4050 ;; Data sizes:     COMMON   BANK0   BANK1   BANK3   BANK2
  4051 ;;      Params:         0       0       0       0       0
  4052 ;;      Locals:         0       0       0       0       0
  4053 ;;      Temps:          1       0       0       0       0
  4054 ;;      Totals:         1       0       0       0       0
  4055 ;;Total ram usage:        1 bytes
  4056 ;; Hardware stack levels used: 1
  4057 ;; Hardware stack levels required when called: 2
  4058 ;; This function calls:
  4059 ;;		_clcd_write
  4060 ;; This function is called by:
  4061 ;;		_main
  4062 ;;		_washing_program_display
  4063 ;;		_water_level_display
  4064 ;;		_door_status_check
  4065 ;;		_run_program
  4066 ;; This function uses a non-reentrant model
  4067 ;;
  4068                           
  4069     1517                     _clear_screen:	
  4070                           ;psect for function _clear_screen
  4071                           
  4072     1517                     l3073:	
  4073                           ;incstack = 0
  4074                           ; Regs used in _clear_screen: [wreg+status,2+status,0+pclath+cstack]
  4075                           
  4076                           
  4077                           ;main.c: 122:      clcd_write(0x01, 0);
  4078     1517  01F2               	clrf	clcd_write@mode
  4079     1518  3001               	movlw	1
  4080     1519  160A  118A  2549  160A  118A  	fcall	_clcd_write
  4081     151E                     l3075:
  4082                           
  4083                           ;main.c: 123:      _delay((unsigned long)((100)*(20000000/4000000.0)));
  4084     151E  30A6               	movlw	166
  4085     151F  00F6               	movwf	??_clear_screen
  4086     1520                     u4737:
  4087     1520  0BF6               	decfsz	??_clear_screen,f
  4088     1521  2D20               	goto	u4737
  4089     1522  0000               	nop
  4090     1523                     l103:
  4091     1523  0008               	return
  4092     1524                     __end_of_clear_screen:
  4093                           
  4094                           	psect	text7
  4095     0729                     __ptext7:	
  4096 ;; *************** function ___xxtofl *****************
  4097 ;; Defined at:
  4098 ;;		line 10 in file "C:\Program Files\Microchip\xc8\v2.46\pic\sources\c99\common\xxtofl.c"
  4099 ;; Parameters:    Size  Location     Type
  4100 ;;  sign            1    wreg     unsigned char 
  4101 ;;  val             4    2[COMMON] long 
  4102 ;; Auto vars:     Size  Location     Type
  4103 ;;  sign            1    0[BANK0 ] unsigned char 
  4104 ;;  arg             4    2[BANK0 ] unsigned long 
  4105 ;;  exp             1    1[BANK0 ] unsigned char 
  4106 ;; Return value:  Size  Location     Type
  4107 ;;                  4    2[COMMON] unsigned char 
  4108 ;; Registers used:
  4109 ;;		wreg, status,2, status,0, btemp+1
  4110 ;; Tracked objects:
  4111 ;;		On entry : 0/0
  4112 ;;		On exit  : 0/0
  4113 ;;		Unchanged: 0/0
  4114 ;; Data sizes:     COMMON   BANK0   BANK1   BANK3   BANK2
  4115 ;;      Params:         4       0       0       0       0
  4116 ;;      Locals:         0       6       0       0       0
  4117 ;;      Temps:          4       0       0       0       0
  4118 ;;      Totals:         8       6       0       0       0
  4119 ;;Total ram usage:       14 bytes
  4120 ;; Hardware stack levels used: 1
  4121 ;; Hardware stack levels required when called: 1
  4122 ;; This function calls:
  4123 ;;		Nothing
  4124 ;; This function is called by:
  4125 ;;		_run_program
  4126 ;; This function uses a non-reentrant model
  4127 ;;
  4128                           
  4129     0729                     ___xxtofl:	
  4130                           ;psect for function ___xxtofl
  4131                           
  4132                           
  4133                           ;incstack = 0
  4134                           ; Regs used in ___xxtofl: [wreg+status,2+status,0+btemp+1]
  4135                           ;___xxtofl@sign stored from wreg
  4136     0729  1283               	bcf	3,5	;RP0=0, select bank0
  4137     072A  1303               	bcf	3,6	;RP1=0, select bank0
  4138     072B  00A0               	movwf	___xxtofl@sign
  4139     072C                     l2553:
  4140     072C  0820               	movf	___xxtofl@sign,w
  4141     072D  1903               	btfsc	3,2
  4142     072E  2F30               	goto	u3271
  4143     072F  2F31               	goto	u3270
  4144     0730                     u3271:
  4145     0730  2F45               	goto	l2559
  4146     0731                     u3270:
  4147     0731                     l2555:
  4148     0731  1FF5               	btfss	___xxtofl@val+3,7
  4149     0732  2F34               	goto	u3281
  4150     0733  2F35               	goto	u3280
  4151     0734                     u3281:
  4152     0734  2F45               	goto	l2559
  4153     0735                     u3280:
  4154     0735                     l2557:
  4155     0735  0972               	comf	___xxtofl@val,w
  4156     0736  00A2               	movwf	___xxtofl@arg
  4157     0737  0973               	comf	___xxtofl@val+1,w
  4158     0738  00A3               	movwf	___xxtofl@arg+1
  4159     0739  0974               	comf	___xxtofl@val+2,w
  4160     073A  00A4               	movwf	___xxtofl@arg+2
  4161     073B  0975               	comf	___xxtofl@val+3,w
  4162     073C  00A5               	movwf	___xxtofl@arg+3
  4163     073D  0AA2               	incf	___xxtofl@arg,f
  4164     073E  1903               	skipnz
  4165     073F  0AA3               	incf	___xxtofl@arg+1,f
  4166     0740  1903               	skipnz
  4167     0741  0AA4               	incf	___xxtofl@arg+2,f
  4168     0742  1903               	skipnz
  4169     0743  0AA5               	incf	___xxtofl@arg+3,f
  4170     0744  2F4D               	goto	l836
  4171     0745                     l2559:
  4172     0745  0875               	movf	___xxtofl@val+3,w
  4173     0746  00A5               	movwf	___xxtofl@arg+3
  4174     0747  0874               	movf	___xxtofl@val+2,w
  4175     0748  00A4               	movwf	___xxtofl@arg+2
  4176     0749  0873               	movf	___xxtofl@val+1,w
  4177     074A  00A3               	movwf	___xxtofl@arg+1
  4178     074B  0872               	movf	___xxtofl@val,w
  4179     074C  00A2               	movwf	___xxtofl@arg
  4180     074D                     l836:
  4181     074D  0875               	movf	___xxtofl@val+3,w
  4182     074E  0474               	iorwf	___xxtofl@val+2,w
  4183     074F  0473               	iorwf	___xxtofl@val+1,w
  4184     0750  0472               	iorwf	___xxtofl@val,w
  4185     0751  1D03               	skipz
  4186     0752  2F54               	goto	u3291
  4187     0753  2F55               	goto	u3290
  4188     0754                     u3291:
  4189     0754  2F5E               	goto	l2565
  4190     0755                     u3290:
  4191     0755                     l2561:
  4192     0755  3000               	movlw	0
  4193     0756  00F5               	movwf	?___xxtofl+3
  4194     0757  3000               	movlw	0
  4195     0758  00F4               	movwf	?___xxtofl+2
  4196     0759  3000               	movlw	0
  4197     075A  00F3               	movwf	?___xxtofl+1
  4198     075B  3000               	movlw	0
  4199     075C  00F2               	movwf	?___xxtofl
  4200     075D  2FE2               	goto	l838
  4201     075E                     l2565:
  4202     075E  3096               	movlw	150
  4203     075F  00A1               	movwf	___xxtofl@exp
  4204     0760  2F6E               	goto	l2571
  4205     0761                     l2567:
  4206     0761  3001               	movlw	1
  4207     0762  00FF               	movwf	btemp+1
  4208     0763  087F               	movf	btemp+1,w
  4209     0764  07A1               	addwf	___xxtofl@exp,f
  4210     0765                     l2569:
  4211     0765  3001               	movlw	1
  4212     0766                     u3305:
  4213     0766  1003               	clrc
  4214     0767  0CA5               	rrf	___xxtofl@arg+3,f
  4215     0768  0CA4               	rrf	___xxtofl@arg+2,f
  4216     0769  0CA3               	rrf	___xxtofl@arg+1,f
  4217     076A  0CA2               	rrf	___xxtofl@arg,f
  4218     076B  3EFF               	addlw	-1
  4219     076C  1D03               	skipz
  4220     076D  2F66               	goto	u3305
  4221     076E                     l2571:
  4222     076E  30FE               	movlw	254
  4223     076F  0525               	andwf	___xxtofl@arg+3,w
  4224     0770  1D03               	btfss	3,2
  4225     0771  2F73               	goto	u3311
  4226     0772  2F74               	goto	u3310
  4227     0773                     u3311:
  4228     0773  2F61               	goto	l2567
  4229     0774                     u3310:
  4230     0774  2F90               	goto	l2579
  4231     0775                     l2573:
  4232     0775  3001               	movlw	1
  4233     0776  00FF               	movwf	btemp+1
  4234     0777  087F               	movf	btemp+1,w
  4235     0778  07A1               	addwf	___xxtofl@exp,f
  4236     0779                     l2575:
  4237     0779  3001               	movlw	1
  4238     077A  07A2               	addwf	___xxtofl@arg,f
  4239     077B  3000               	movlw	0
  4240     077C  1803               	skipnc
  4241     077D  3001               	movlw	1
  4242     077E  07A3               	addwf	___xxtofl@arg+1,f
  4243     077F  3000               	movlw	0
  4244     0780  1803               	skipnc
  4245     0781  3001               	movlw	1
  4246     0782  07A4               	addwf	___xxtofl@arg+2,f
  4247     0783  3000               	movlw	0
  4248     0784  1803               	skipnc
  4249     0785  3001               	movlw	1
  4250     0786  07A5               	addwf	___xxtofl@arg+3,f
  4251     0787                     l2577:
  4252     0787  3001               	movlw	1
  4253     0788                     u3325:
  4254     0788  1003               	clrc
  4255     0789  0CA5               	rrf	___xxtofl@arg+3,f
  4256     078A  0CA4               	rrf	___xxtofl@arg+2,f
  4257     078B  0CA3               	rrf	___xxtofl@arg+1,f
  4258     078C  0CA2               	rrf	___xxtofl@arg,f
  4259     078D  3EFF               	addlw	-1
  4260     078E  1D03               	skipz
  4261     078F  2F88               	goto	u3325
  4262     0790                     l2579:
  4263     0790  30FF               	movlw	255
  4264     0791  0525               	andwf	___xxtofl@arg+3,w
  4265     0792  1D03               	btfss	3,2
  4266     0793  2F95               	goto	u3331
  4267     0794  2F96               	goto	u3330
  4268     0795                     u3331:
  4269     0795  2F75               	goto	l2573
  4270     0796                     u3330:
  4271     0796  2FA2               	goto	l2583
  4272     0797                     l2581:
  4273     0797  3001               	movlw	1
  4274     0798  02A1               	subwf	___xxtofl@exp,f
  4275     0799  3001               	movlw	1
  4276     079A  00F6               	movwf	??___xxtofl
  4277     079B                     u3345:
  4278     079B  1003               	clrc
  4279     079C  0DA2               	rlf	___xxtofl@arg,f
  4280     079D  0DA3               	rlf	___xxtofl@arg+1,f
  4281     079E  0DA4               	rlf	___xxtofl@arg+2,f
  4282     079F  0DA5               	rlf	___xxtofl@arg+3,f
  4283     07A0  0BF6               	decfsz	??___xxtofl,f
  4284     07A1  2F9B               	goto	u3345
  4285     07A2                     l2583:
  4286     07A2  1BA4               	btfsc	___xxtofl@arg+2,7
  4287     07A3  2FA5               	goto	u3351
  4288     07A4  2FA6               	goto	u3350
  4289     07A5                     u3351:
  4290     07A5  2FAC               	goto	l849
  4291     07A6                     u3350:
  4292     07A6                     l2585:
  4293     07A6  3002               	movlw	2
  4294     07A7  0221               	subwf	___xxtofl@exp,w
  4295     07A8  1803               	skipnc
  4296     07A9  2FAB               	goto	u3361
  4297     07AA  2FAC               	goto	u3360
  4298     07AB                     u3361:
  4299     07AB  2F97               	goto	l2581
  4300     07AC                     u3360:
  4301     07AC                     l849:
  4302     07AC  1821               	btfsc	___xxtofl@exp,0
  4303     07AD  2FAF               	goto	u3371
  4304     07AE  2FB0               	goto	u3370
  4305     07AF                     u3371:
  4306     07AF  2FB8               	goto	l850
  4307     07B0                     u3370:
  4308     07B0                     l2587:
  4309     07B0  30FF               	movlw	255
  4310     07B1  05A2               	andwf	___xxtofl@arg,f
  4311     07B2  30FF               	movlw	255
  4312     07B3  05A3               	andwf	___xxtofl@arg+1,f
  4313     07B4  307F               	movlw	127
  4314     07B5  05A4               	andwf	___xxtofl@arg+2,f
  4315     07B6  30FF               	movlw	255
  4316     07B7  05A5               	andwf	___xxtofl@arg+3,f
  4317     07B8                     l850:
  4318     07B8  1003               	clrc
  4319     07B9  0CA1               	rrf	___xxtofl@exp,f
  4320     07BA                     l2589:
  4321     07BA  0821               	movf	___xxtofl@exp,w
  4322     07BB  00F6               	movwf	??___xxtofl
  4323     07BC  01F7               	clrf	??___xxtofl+1
  4324     07BD  01F8               	clrf	??___xxtofl+2
  4325     07BE  01F9               	clrf	??___xxtofl+3
  4326     07BF  3018               	movlw	24
  4327     07C0                     u3385:
  4328     07C0  1003               	clrc
  4329     07C1  0DF6               	rlf	??___xxtofl,f
  4330     07C2  0DF7               	rlf	??___xxtofl+1,f
  4331     07C3  0DF8               	rlf	??___xxtofl+2,f
  4332     07C4  0DF9               	rlf	??___xxtofl+3,f
  4333     07C5                     u3380:
  4334     07C5  3EFF               	addlw	-1
  4335     07C6  1D03               	skipz
  4336     07C7  2FC0               	goto	u3385
  4337     07C8  0876               	movf	??___xxtofl,w
  4338     07C9  04A2               	iorwf	___xxtofl@arg,f
  4339     07CA  0877               	movf	??___xxtofl+1,w
  4340     07CB  04A3               	iorwf	___xxtofl@arg+1,f
  4341     07CC  0878               	movf	??___xxtofl+2,w
  4342     07CD  04A4               	iorwf	___xxtofl@arg+2,f
  4343     07CE  0879               	movf	??___xxtofl+3,w
  4344     07CF  04A5               	iorwf	___xxtofl@arg+3,f
  4345     07D0                     l2591:
  4346     07D0  0820               	movf	___xxtofl@sign,w
  4347     07D1  1903               	btfsc	3,2
  4348     07D2  2FD4               	goto	u3391
  4349     07D3  2FD5               	goto	u3390
  4350     07D4                     u3391:
  4351     07D4  2FDA               	goto	l2597
  4352     07D5                     u3390:
  4353     07D5                     l2593:
  4354     07D5  1FF5               	btfss	___xxtofl@val+3,7
  4355     07D6  2FD8               	goto	u3401
  4356     07D7  2FD9               	goto	u3400
  4357     07D8                     u3401:
  4358     07D8  2FDA               	goto	l2597
  4359     07D9                     u3400:
  4360     07D9                     l2595:
  4361     07D9  17A5               	bsf	___xxtofl@arg+3,7
  4362     07DA                     l2597:
  4363     07DA  0825               	movf	___xxtofl@arg+3,w
  4364     07DB  00F5               	movwf	?___xxtofl+3
  4365     07DC  0824               	movf	___xxtofl@arg+2,w
  4366     07DD  00F4               	movwf	?___xxtofl+2
  4367     07DE  0823               	movf	___xxtofl@arg+1,w
  4368     07DF  00F3               	movwf	?___xxtofl+1
  4369     07E0  0822               	movf	___xxtofl@arg,w
  4370     07E1  00F2               	movwf	?___xxtofl
  4371     07E2                     l838:
  4372     07E2  0008               	return
  4373     07E3                     __end_of___xxtofl:
  4374                           
  4375                           	psect	text8
  4376     158D                     __ptext8:	
  4377 ;; *************** function ___wmul *****************
  4378 ;; Defined at:
  4379 ;;		line 15 in file "C:\Program Files\Microchip\xc8\v2.46\pic\sources\c99\common\Umul16.c"
  4380 ;; Parameters:    Size  Location     Type
  4381 ;;  multiplier      2    2[COMMON] unsigned int 
  4382 ;;  multiplicand    2    4[COMMON] unsigned int 
  4383 ;; Auto vars:     Size  Location     Type
  4384 ;;  product         2    6[COMMON] unsigned int 
  4385 ;; Return value:  Size  Location     Type
  4386 ;;                  2    2[COMMON] unsigned int 
  4387 ;; Registers used:
  4388 ;;		wreg, status,2, status,0
  4389 ;; Tracked objects:
  4390 ;;		On entry : 0/0
  4391 ;;		On exit  : 0/0
  4392 ;;		Unchanged: 0/0
  4393 ;; Data sizes:     COMMON   BANK0   BANK1   BANK3   BANK2
  4394 ;;      Params:         4       0       0       0       0
  4395 ;;      Locals:         2       0       0       0       0
  4396 ;;      Temps:          0       0       0       0       0
  4397 ;;      Totals:         6       0       0       0       0
  4398 ;;Total ram usage:        6 bytes
  4399 ;; Hardware stack levels used: 1
  4400 ;; Hardware stack levels required when called: 1
  4401 ;; This function calls:
  4402 ;;		Nothing
  4403 ;; This function is called by:
  4404 ;;		_run_program
  4405 ;; This function uses a non-reentrant model
  4406 ;;
  4407                           
  4408     158D                     ___wmul:	
  4409                           ;psect for function ___wmul
  4410                           
  4411     158D                     l2251:	
  4412                           ;incstack = 0
  4413                           ; Regs used in ___wmul: [wreg+status,2+status,0]
  4414                           
  4415     158D  01F6               	clrf	___wmul@product
  4416     158E  01F7               	clrf	___wmul@product+1
  4417     158F                     l2253:
  4418     158F  1C72               	btfss	___wmul@multiplier,0
  4419     1590  2D92               	goto	u2501
  4420     1591  2D93               	goto	u2500
  4421     1592                     u2501:
  4422     1592  2D99               	goto	l395
  4423     1593                     u2500:
  4424     1593                     l2255:
  4425     1593  0874               	movf	___wmul@multiplicand,w
  4426     1594  07F6               	addwf	___wmul@product,f
  4427     1595  1803               	skipnc
  4428     1596  0AF7               	incf	___wmul@product+1,f
  4429     1597  0875               	movf	___wmul@multiplicand+1,w
  4430     1598  07F7               	addwf	___wmul@product+1,f
  4431     1599                     l395:
  4432     1599  3001               	movlw	1
  4433     159A                     u2515:
  4434     159A  1003               	clrc
  4435     159B  0DF4               	rlf	___wmul@multiplicand,f
  4436     159C  0DF5               	rlf	___wmul@multiplicand+1,f
  4437     159D  3EFF               	addlw	-1
  4438     159E  1D03               	skipz
  4439     159F  2D9A               	goto	u2515
  4440     15A0                     l2257:
  4441     15A0  3001               	movlw	1
  4442     15A1                     u2525:
  4443     15A1  1003               	clrc
  4444     15A2  0CF3               	rrf	___wmul@multiplier+1,f
  4445     15A3  0CF2               	rrf	___wmul@multiplier,f
  4446     15A4  3EFF               	addlw	-1
  4447     15A5  1D03               	skipz
  4448     15A6  2DA1               	goto	u2525
  4449     15A7                     l2259:
  4450     15A7  0872               	movf	___wmul@multiplier,w
  4451     15A8  0473               	iorwf	___wmul@multiplier+1,w
  4452     15A9  1D03               	btfss	3,2
  4453     15AA  2DAC               	goto	u2531
  4454     15AB  2DAD               	goto	u2530
  4455     15AC                     u2531:
  4456     15AC  2D8F               	goto	l2253
  4457     15AD                     u2530:
  4458     15AD                     l2261:
  4459     15AD  0877               	movf	___wmul@product+1,w
  4460     15AE  00F3               	movwf	?___wmul+1
  4461     15AF  0876               	movf	___wmul@product,w
  4462     15B0  00F2               	movwf	?___wmul
  4463     15B1                     l397:
  4464     15B1  0008               	return
  4465     15B2                     __end_of___wmul:
  4466                           
  4467                           	psect	text9
  4468     0896                     __ptext9:	
  4469 ;; *************** function ___fltol *****************
  4470 ;; Defined at:
  4471 ;;		line 43 in file "C:\Program Files\Microchip\xc8\v2.46\pic\sources\c99\common\fltol.c"
  4472 ;; Parameters:    Size  Location     Type
  4473 ;;  f1              4   32[BANK0 ] unsigned int 
  4474 ;; Auto vars:     Size  Location     Type
  4475 ;;  exp1            1   41[BANK0 ] unsigned char 
  4476 ;;  sign1           1   40[BANK0 ] unsigned char 
  4477 ;; Return value:  Size  Location     Type
  4478 ;;                  4   32[BANK0 ] long 
  4479 ;; Registers used:
  4480 ;;		wreg, status,2, status,0, btemp+1
  4481 ;; Tracked objects:
  4482 ;;		On entry : 0/0
  4483 ;;		On exit  : 0/0
  4484 ;;		Unchanged: 0/0
  4485 ;; Data sizes:     COMMON   BANK0   BANK1   BANK3   BANK2
  4486 ;;      Params:         0       4       0       0       0
  4487 ;;      Locals:         0       2       0       0       0
  4488 ;;      Temps:          0       4       0       0       0
  4489 ;;      Totals:         0      10       0       0       0
  4490 ;;Total ram usage:       10 bytes
  4491 ;; Hardware stack levels used: 1
  4492 ;; Hardware stack levels required when called: 1
  4493 ;; This function calls:
  4494 ;;		Nothing
  4495 ;; This function is called by:
  4496 ;;		_run_program
  4497 ;; This function uses a non-reentrant model
  4498 ;;
  4499                           
  4500     0896                     ___fltol:	
  4501                           ;psect for function ___fltol
  4502                           
  4503     0896                     l2367:	
  4504                           ;incstack = 0
  4505                           ; Regs used in ___fltol: [wreg+status,2+status,0+btemp+1]
  4506                           
  4507     0896  1003               	clrc
  4508     0897  1283               	bcf	3,5	;RP0=0, select bank0
  4509     0898  1303               	bcf	3,6	;RP1=0, select bank0
  4510     0899  0D42               	rlf	___fltol@f1+2,w
  4511     089A  0D43               	rlf	___fltol@f1+3,w
  4512     089B  00C9               	movwf	___fltol@exp1
  4513     089C  0849               	movf	___fltol@exp1,w
  4514     089D  1D03               	btfss	3,2
  4515     089E  28A0               	goto	u2801
  4516     089F  28A1               	goto	u2800
  4517     08A0                     u2801:
  4518     08A0  28AA               	goto	l2373
  4519     08A1                     u2800:
  4520     08A1                     l2369:
  4521     08A1  3000               	movlw	0
  4522     08A2  00C3               	movwf	?___fltol+3
  4523     08A3  3000               	movlw	0
  4524     08A4  00C2               	movwf	?___fltol+2
  4525     08A5  3000               	movlw	0
  4526     08A6  00C1               	movwf	?___fltol+1
  4527     08A7  3000               	movlw	0
  4528     08A8  00C0               	movwf	?___fltol
  4529     08A9  290D               	goto	l589
  4530     08AA                     l2373:
  4531     08AA  0840               	movf	___fltol@f1,w
  4532     08AB  00C4               	movwf	??___fltol
  4533     08AC  0841               	movf	___fltol@f1+1,w
  4534     08AD  00C5               	movwf	??___fltol+1
  4535     08AE  0842               	movf	___fltol@f1+2,w
  4536     08AF  00C6               	movwf	??___fltol+2
  4537     08B0  0843               	movf	___fltol@f1+3,w
  4538     08B1  00C7               	movwf	??___fltol+3
  4539     08B2  301F               	movlw	31
  4540     08B3                     u2815:
  4541     08B3  1003               	clrc
  4542     08B4  0CC7               	rrf	??___fltol+3,f
  4543     08B5  0CC6               	rrf	??___fltol+2,f
  4544     08B6  0CC5               	rrf	??___fltol+1,f
  4545     08B7  0CC4               	rrf	??___fltol,f
  4546     08B8                     u2810:
  4547     08B8  3EFF               	addlw	-1
  4548     08B9  1D03               	skipz
  4549     08BA  28B3               	goto	u2815
  4550     08BB  0844               	movf	??___fltol,w
  4551     08BC  00C8               	movwf	___fltol@sign1
  4552     08BD                     l2375:
  4553     08BD  17C2               	bsf	___fltol@f1+2,7
  4554     08BE                     l2377:
  4555     08BE  30FF               	movlw	255
  4556     08BF  05C0               	andwf	___fltol@f1,f
  4557     08C0  30FF               	movlw	255
  4558     08C1  05C1               	andwf	___fltol@f1+1,f
  4559     08C2  30FF               	movlw	255
  4560     08C3  05C2               	andwf	___fltol@f1+2,f
  4561     08C4  3000               	movlw	0
  4562     08C5  05C3               	andwf	___fltol@f1+3,f
  4563     08C6                     l2379:
  4564     08C6  3096               	movlw	150
  4565     08C7  02C9               	subwf	___fltol@exp1,f
  4566     08C8                     l2381:
  4567     08C8  1FC9               	btfss	___fltol@exp1,7
  4568     08C9  28CB               	goto	u2821
  4569     08CA  28CC               	goto	u2820
  4570     08CB                     u2821:
  4571     08CB  28E6               	goto	l2393
  4572     08CC                     u2820:
  4573     08CC                     l2383:
  4574     08CC  0849               	movf	___fltol@exp1,w
  4575     08CD  3A80               	xorlw	128
  4576     08CE  3E97               	addlw	151
  4577     08CF  1803               	skipnc
  4578     08D0  28D2               	goto	u2831
  4579     08D1  28D3               	goto	u2830
  4580     08D2                     u2831:
  4581     08D2  28D4               	goto	l2389
  4582     08D3                     u2830:
  4583     08D3  28A1               	goto	l2369
  4584     08D4                     l2389:
  4585     08D4  3001               	movlw	1
  4586     08D5                     u2845:
  4587     08D5  1003               	clrc
  4588     08D6  0CC3               	rrf	___fltol@f1+3,f
  4589     08D7  0CC2               	rrf	___fltol@f1+2,f
  4590     08D8  0CC1               	rrf	___fltol@f1+1,f
  4591     08D9  0CC0               	rrf	___fltol@f1,f
  4592     08DA  3EFF               	addlw	-1
  4593     08DB  1D03               	skipz
  4594     08DC  28D5               	goto	u2845
  4595     08DD                     l2391:
  4596     08DD  3001               	movlw	1
  4597     08DE  00FF               	movwf	btemp+1
  4598     08DF  087F               	movf	btemp+1,w
  4599     08E0  07C9               	addwf	___fltol@exp1,f
  4600     08E1  1D03               	btfss	3,2
  4601     08E2  28E4               	goto	u2851
  4602     08E3  28E5               	goto	u2850
  4603     08E4                     u2851:
  4604     08E4  28D4               	goto	l2389
  4605     08E5                     u2850:
  4606     08E5  28FD               	goto	l2401
  4607     08E6                     l2393:
  4608     08E6  3020               	movlw	32
  4609     08E7  0249               	subwf	___fltol@exp1,w
  4610     08E8  1C03               	skipc
  4611     08E9  28EB               	goto	u2861
  4612     08EA  28EC               	goto	u2860
  4613     08EB                     u2861:
  4614     08EB  28F8               	goto	l596
  4615     08EC                     u2860:
  4616     08EC  28A1               	goto	l2369
  4617     08ED                     l2399:
  4618     08ED  3001               	movlw	1
  4619     08EE  00C4               	movwf	??___fltol
  4620     08EF                     u2875:
  4621     08EF  1003               	clrc
  4622     08F0  0DC0               	rlf	___fltol@f1,f
  4623     08F1  0DC1               	rlf	___fltol@f1+1,f
  4624     08F2  0DC2               	rlf	___fltol@f1+2,f
  4625     08F3  0DC3               	rlf	___fltol@f1+3,f
  4626     08F4  0BC4               	decfsz	??___fltol,f
  4627     08F5  28EF               	goto	u2875
  4628     08F6  3001               	movlw	1
  4629     08F7  02C9               	subwf	___fltol@exp1,f
  4630     08F8                     l596:
  4631     08F8  0849               	movf	___fltol@exp1,w
  4632     08F9  1D03               	btfss	3,2
  4633     08FA  28FC               	goto	u2881
  4634     08FB  28FD               	goto	u2880
  4635     08FC                     u2881:
  4636     08FC  28ED               	goto	l2399
  4637     08FD                     u2880:
  4638     08FD                     l2401:
  4639     08FD  0848               	movf	___fltol@sign1,w
  4640     08FE  1903               	btfsc	3,2
  4641     08FF  2901               	goto	u2891
  4642     0900  2902               	goto	u2890
  4643     0901                     u2891:
  4644     0901  290D               	goto	l599
  4645     0902                     u2890:
  4646     0902                     l2403:
  4647     0902  09C0               	comf	___fltol@f1,f
  4648     0903  09C1               	comf	___fltol@f1+1,f
  4649     0904  09C2               	comf	___fltol@f1+2,f
  4650     0905  09C3               	comf	___fltol@f1+3,f
  4651     0906  0AC0               	incf	___fltol@f1,f
  4652     0907  1903               	skipnz
  4653     0908  0AC1               	incf	___fltol@f1+1,f
  4654     0909  1903               	skipnz
  4655     090A  0AC2               	incf	___fltol@f1+2,f
  4656     090B  1903               	skipnz
  4657     090C  0AC3               	incf	___fltol@f1+3,f
  4658     090D                     l599:
  4659     090D                     l589:
  4660     090D  0008               	return
  4661     090E                     __end_of___fltol:
  4662                           
  4663                           	psect	text10
  4664     1569                     __ptext10:	
  4665 ;; *************** function ___flsub *****************
  4666 ;; Defined at:
  4667 ;;		line 242 in file "C:\Program Files\Microchip\xc8\v2.46\pic\sources\c99\common\sprcadd.c"
  4668 ;; Parameters:    Size  Location     Type
  4669 ;;  a               4   32[BANK0 ] long 
  4670 ;;  b               4   36[BANK0 ] long 
  4671 ;; Auto vars:     Size  Location     Type
  4672 ;;		None
  4673 ;; Return value:  Size  Location     Type
  4674 ;;                  4   32[BANK0 ] long 
  4675 ;; Registers used:
  4676 ;;		wreg, status,2, status,0, btemp+1, pclath, cstack
  4677 ;; Tracked objects:
  4678 ;;		On entry : 0/0
  4679 ;;		On exit  : 0/0
  4680 ;;		Unchanged: 0/0
  4681 ;; Data sizes:     COMMON   BANK0   BANK1   BANK3   BANK2
  4682 ;;      Params:         0       8       0       0       0
  4683 ;;      Locals:         0       0       0       0       0
  4684 ;;      Temps:          0       0       0       0       0
  4685 ;;      Totals:         0       8       0       0       0
  4686 ;;Total ram usage:        8 bytes
  4687 ;; Hardware stack levels used: 1
  4688 ;; Hardware stack levels required when called: 2
  4689 ;; This function calls:
  4690 ;;		___fladd
  4691 ;; This function is called by:
  4692 ;;		_run_program
  4693 ;; This function uses a non-reentrant model
  4694 ;;
  4695                           
  4696     1569                     ___flsub:	
  4697                           ;psect for function ___flsub
  4698                           
  4699     1569                     l2405:	
  4700                           ;incstack = 0
  4701                           ; Regs used in ___flsub: [wreg+status,2+status,0+btemp+1+pclath+cstack]
  4702                           
  4703     1569  3080               	movlw	128
  4704     156A  1283               	bcf	3,5	;RP0=0, select bank0
  4705     156B  1303               	bcf	3,6	;RP1=0, select bank0
  4706     156C  06C3               	xorwf	___flsub@a+3,f
  4707     156D                     l2407:
  4708     156D  0847               	movf	___flsub@b+3,w
  4709     156E  00F5               	movwf	___fladd@b+3
  4710     156F  0846               	movf	___flsub@b+2,w
  4711     1570  00F4               	movwf	___fladd@b+2
  4712     1571  0845               	movf	___flsub@b+1,w
  4713     1572  00F3               	movwf	___fladd@b+1
  4714     1573  0844               	movf	___flsub@b,w
  4715     1574  00F2               	movwf	___fladd@b
  4716     1575  0843               	movf	___flsub@a+3,w
  4717     1576  00F9               	movwf	___fladd@a+3
  4718     1577  0842               	movf	___flsub@a+2,w
  4719     1578  00F8               	movwf	___fladd@a+2
  4720     1579  0841               	movf	___flsub@a+1,w
  4721     157A  00F7               	movwf	___fladd@a+1
  4722     157B  0840               	movf	___flsub@a,w
  4723     157C  00F6               	movwf	___fladd@a
  4724     157D  120A  158A  25A8  160A  118A  	fcall	___fladd
  4725     1582  0875               	movf	?___fladd+3,w
  4726     1583  1283               	bcf	3,5	;RP0=0, select bank0
  4727     1584  1303               	bcf	3,6	;RP1=0, select bank0
  4728     1585  00C3               	movwf	?___flsub+3
  4729     1586  0874               	movf	?___fladd+2,w
  4730     1587  00C2               	movwf	?___flsub+2
  4731     1588  0873               	movf	?___fladd+1,w
  4732     1589  00C1               	movwf	?___flsub+1
  4733     158A  0872               	movf	?___fladd,w
  4734     158B  00C0               	movwf	?___flsub
  4735     158C                     l742:
  4736     158C  0008               	return
  4737     158D                     __end_of___flsub:
  4738                           
  4739                           	psect	text11
  4740     0DA8                     __ptext11:	
  4741 ;; *************** function ___fladd *****************
  4742 ;; Defined at:
  4743 ;;		line 10 in file "C:\Program Files\Microchip\xc8\v2.46\pic\sources\c99\common\sprcadd.c"
  4744 ;; Parameters:    Size  Location     Type
  4745 ;;  b               4    2[COMMON] long 
  4746 ;;  a               4    6[COMMON] long 
  4747 ;; Auto vars:     Size  Location     Type
  4748 ;;  grs             1   11[BANK0 ] unsigned char 
  4749 ;;  bexp            1   10[BANK0 ] unsigned char 
  4750 ;;  aexp            1    9[BANK0 ] unsigned char 
  4751 ;;  signs           1    8[BANK0 ] unsigned char 
  4752 ;; Return value:  Size  Location     Type
  4753 ;;                  4    2[COMMON] unsigned char 
  4754 ;; Registers used:
  4755 ;;		wreg, status,2, status,0, btemp+1
  4756 ;; Tracked objects:
  4757 ;;		On entry : 0/0
  4758 ;;		On exit  : 0/0
  4759 ;;		Unchanged: 0/0
  4760 ;; Data sizes:     COMMON   BANK0   BANK1   BANK3   BANK2
  4761 ;;      Params:         8       0       0       0       0
  4762 ;;      Locals:         0       4       0       0       0
  4763 ;;      Temps:          0       8       0       0       0
  4764 ;;      Totals:         8      12       0       0       0
  4765 ;;Total ram usage:       20 bytes
  4766 ;; Hardware stack levels used: 1
  4767 ;; Hardware stack levels required when called: 1
  4768 ;; This function calls:
  4769 ;;		Nothing
  4770 ;; This function is called by:
  4771 ;;		___flsub
  4772 ;; This function uses a non-reentrant model
  4773 ;;
  4774                           
  4775     0DA8                     ___fladd:	
  4776                           ;psect for function ___fladd
  4777                           
  4778     0DA8                     l1993:	
  4779                           ;incstack = 0
  4780                           ; Regs used in ___fladd: [wreg+status,2+status,0+btemp+1]
  4781                           
  4782     0DA8  0875               	movf	___fladd@b+3,w
  4783     0DA9  3980               	andlw	128
  4784     0DAA  1283               	bcf	3,5	;RP0=0, select bank0
  4785     0DAB  1303               	bcf	3,6	;RP1=0, select bank0
  4786     0DAC  00A8               	movwf	___fladd@signs
  4787     0DAD                     l1995:
  4788     0DAD  0875               	movf	___fladd@b+3,w
  4789     0DAE  00A0               	movwf	??___fladd
  4790     0DAF  0720               	addwf	??___fladd,w
  4791     0DB0  00AA               	movwf	___fladd@bexp
  4792     0DB1                     l1997:
  4793     0DB1  1FF4               	btfss	___fladd@b+2,7
  4794     0DB2  2DB4               	goto	u1991
  4795     0DB3  2DB5               	goto	u1990
  4796     0DB4                     u1991:
  4797     0DB4  2DB6               	goto	l2001
  4798     0DB5                     u1990:
  4799     0DB5                     l1999:
  4800     0DB5  142A               	bsf	___fladd@bexp,0
  4801     0DB6                     l2001:
  4802     0DB6  082A               	movf	___fladd@bexp,w
  4803     0DB7  1903               	btfsc	3,2
  4804     0DB8  2DBA               	goto	u2001
  4805     0DB9  2DBB               	goto	u2000
  4806     0DBA                     u2001:
  4807     0DBA  2DCB               	goto	l2011
  4808     0DBB                     u2000:
  4809     0DBB                     l2003:
  4810     0DBB  0A2A               	incf	___fladd@bexp,w
  4811     0DBC  1D03               	btfss	3,2
  4812     0DBD  2DBF               	goto	u2011
  4813     0DBE  2DC0               	goto	u2010
  4814     0DBF                     u2011:
  4815     0DBF  2DC8               	goto	l2007
  4816     0DC0                     u2010:
  4817     0DC0                     l2005:
  4818     0DC0  3000               	movlw	0
  4819     0DC1  00F5               	movwf	___fladd@b+3
  4820     0DC2  3000               	movlw	0
  4821     0DC3  00F4               	movwf	___fladd@b+2
  4822     0DC4  3000               	movlw	0
  4823     0DC5  00F3               	movwf	___fladd@b+1
  4824     0DC6  3000               	movlw	0
  4825     0DC7  00F2               	movwf	___fladd@b
  4826     0DC8                     l2007:
  4827     0DC8  17F4               	bsf	___fladd@b+2,7
  4828     0DC9                     l2009:
  4829     0DC9  01F5               	clrf	___fladd@b+3
  4830     0DCA  2DD3               	goto	l2013
  4831     0DCB                     l2011:
  4832     0DCB  3000               	movlw	0
  4833     0DCC  00F5               	movwf	___fladd@b+3
  4834     0DCD  3000               	movlw	0
  4835     0DCE  00F4               	movwf	___fladd@b+2
  4836     0DCF  3000               	movlw	0
  4837     0DD0  00F3               	movwf	___fladd@b+1
  4838     0DD1  3000               	movlw	0
  4839     0DD2  00F2               	movwf	___fladd@b
  4840     0DD3                     l2013:
  4841     0DD3  0879               	movf	___fladd@a+3,w
  4842     0DD4  3980               	andlw	128
  4843     0DD5  00A9               	movwf	___fladd@aexp
  4844     0DD6                     l2015:
  4845     0DD6  0829               	movf	___fladd@aexp,w
  4846     0DD7  0628               	xorwf	___fladd@signs,w
  4847     0DD8  1903               	skipnz
  4848     0DD9  2DDB               	goto	u2021
  4849     0DDA  2DDC               	goto	u2020
  4850     0DDB                     u2021:
  4851     0DDB  2DDD               	goto	l2019
  4852     0DDC                     u2020:
  4853     0DDC                     l2017:
  4854     0DDC  1728               	bsf	___fladd@signs,6
  4855     0DDD                     l2019:
  4856     0DDD  0879               	movf	___fladd@a+3,w
  4857     0DDE  00A0               	movwf	??___fladd
  4858     0DDF  0720               	addwf	??___fladd,w
  4859     0DE0  00A9               	movwf	___fladd@aexp
  4860     0DE1                     l2021:
  4861     0DE1  1FF8               	btfss	___fladd@a+2,7
  4862     0DE2  2DE4               	goto	u2031
  4863     0DE3  2DE5               	goto	u2030
  4864     0DE4                     u2031:
  4865     0DE4  2DE6               	goto	l2025
  4866     0DE5                     u2030:
  4867     0DE5                     l2023:
  4868     0DE5  1429               	bsf	___fladd@aexp,0
  4869     0DE6                     l2025:
  4870     0DE6  0829               	movf	___fladd@aexp,w
  4871     0DE7  1903               	btfsc	3,2
  4872     0DE8  2DEA               	goto	u2041
  4873     0DE9  2DEB               	goto	u2040
  4874     0DEA                     u2041:
  4875     0DEA  2DFB               	goto	l2035
  4876     0DEB                     u2040:
  4877     0DEB                     l2027:
  4878     0DEB  0A29               	incf	___fladd@aexp,w
  4879     0DEC  1D03               	btfss	3,2
  4880     0DED  2DEF               	goto	u2051
  4881     0DEE  2DF0               	goto	u2050
  4882     0DEF                     u2051:
  4883     0DEF  2DF8               	goto	l2031
  4884     0DF0                     u2050:
  4885     0DF0                     l2029:
  4886     0DF0  3000               	movlw	0
  4887     0DF1  00F9               	movwf	___fladd@a+3
  4888     0DF2  3000               	movlw	0
  4889     0DF3  00F8               	movwf	___fladd@a+2
  4890     0DF4  3000               	movlw	0
  4891     0DF5  00F7               	movwf	___fladd@a+1
  4892     0DF6  3000               	movlw	0
  4893     0DF7  00F6               	movwf	___fladd@a
  4894     0DF8                     l2031:
  4895     0DF8  17F8               	bsf	___fladd@a+2,7
  4896     0DF9                     l2033:
  4897     0DF9  01F9               	clrf	___fladd@a+3
  4898     0DFA  2E03               	goto	l696
  4899     0DFB                     l2035:
  4900     0DFB  3000               	movlw	0
  4901     0DFC  00F9               	movwf	___fladd@a+3
  4902     0DFD  3000               	movlw	0
  4903     0DFE  00F8               	movwf	___fladd@a+2
  4904     0DFF  3000               	movlw	0
  4905     0E00  00F7               	movwf	___fladd@a+1
  4906     0E01  3000               	movlw	0
  4907     0E02  00F6               	movwf	___fladd@a
  4908     0E03                     l696:
  4909     0E03  082A               	movf	___fladd@bexp,w
  4910     0E04  0229               	subwf	___fladd@aexp,w
  4911     0E05  1803               	skipnc
  4912     0E06  2E08               	goto	u2061
  4913     0E07  2E09               	goto	u2060
  4914     0E08                     u2061:
  4915     0E08  2E2F               	goto	l2071
  4916     0E09                     u2060:
  4917     0E09                     l2037:
  4918     0E09  1F28               	btfss	___fladd@signs,6
  4919     0E0A  2E0C               	goto	u2071
  4920     0E0B  2E0D               	goto	u2070
  4921     0E0C                     u2071:
  4922     0E0C  2E11               	goto	l2041
  4923     0E0D                     u2070:
  4924     0E0D                     l2039:
  4925     0E0D  3080               	movlw	128
  4926     0E0E  00FF               	movwf	btemp+1
  4927     0E0F  087F               	movf	btemp+1,w
  4928     0E10  06A8               	xorwf	___fladd@signs,f
  4929     0E11                     l2041:
  4930     0E11  082A               	movf	___fladd@bexp,w
  4931     0E12  00AB               	movwf	___fladd@grs
  4932     0E13                     l2043:
  4933     0E13  0829               	movf	___fladd@aexp,w
  4934     0E14  00AA               	movwf	___fladd@bexp
  4935     0E15                     l2045:
  4936     0E15  082B               	movf	___fladd@grs,w
  4937     0E16  00A9               	movwf	___fladd@aexp
  4938     0E17                     l2047:
  4939     0E17  0872               	movf	___fladd@b,w
  4940     0E18  00AB               	movwf	___fladd@grs
  4941     0E19                     l2049:
  4942     0E19  0876               	movf	___fladd@a,w
  4943     0E1A  00F2               	movwf	___fladd@b
  4944     0E1B                     l2051:
  4945     0E1B  082B               	movf	___fladd@grs,w
  4946     0E1C  00F6               	movwf	___fladd@a
  4947     0E1D                     l2053:
  4948     0E1D  0873               	movf	___fladd@b+1,w
  4949     0E1E  00AB               	movwf	___fladd@grs
  4950     0E1F                     l2055:
  4951     0E1F  0877               	movf	___fladd@a+1,w
  4952     0E20  00F3               	movwf	___fladd@b+1
  4953     0E21                     l2057:
  4954     0E21  082B               	movf	___fladd@grs,w
  4955     0E22  00F7               	movwf	___fladd@a+1
  4956     0E23                     l2059:
  4957     0E23  0874               	movf	___fladd@b+2,w
  4958     0E24  00AB               	movwf	___fladd@grs
  4959     0E25                     l2061:
  4960     0E25  0878               	movf	___fladd@a+2,w
  4961     0E26  00F4               	movwf	___fladd@b+2
  4962     0E27                     l2063:
  4963     0E27  082B               	movf	___fladd@grs,w
  4964     0E28  00F8               	movwf	___fladd@a+2
  4965     0E29                     l2065:
  4966     0E29  0875               	movf	___fladd@b+3,w
  4967     0E2A  00AB               	movwf	___fladd@grs
  4968     0E2B                     l2067:
  4969     0E2B  0879               	movf	___fladd@a+3,w
  4970     0E2C  00F5               	movwf	___fladd@b+3
  4971     0E2D                     l2069:
  4972     0E2D  082B               	movf	___fladd@grs,w
  4973     0E2E  00F9               	movwf	___fladd@a+3
  4974     0E2F                     l2071:
  4975     0E2F  01AB               	clrf	___fladd@grs
  4976     0E30                     l2073:
  4977     0E30  0829               	movf	___fladd@aexp,w
  4978     0E31  00A0               	movwf	??___fladd
  4979     0E32  01A1               	clrf	??___fladd+1
  4980     0E33  0821               	movf	??___fladd+1,w
  4981     0E34  00A3               	movwf	??___fladd+3
  4982     0E35  082A               	movf	___fladd@bexp,w
  4983     0E36  0220               	subwf	??___fladd,w
  4984     0E37  00A2               	movwf	??___fladd+2
  4985     0E38  1C03               	skipc
  4986     0E39  03A3               	decf	??___fladd+3,f
  4987     0E3A  0823               	movf	??___fladd+3,w
  4988     0E3B  3A80               	xorlw	128
  4989     0E3C  00FF               	movwf	btemp+1
  4990     0E3D  3080               	movlw	128
  4991     0E3E  027F               	subwf	btemp+1,w
  4992     0E3F  1D03               	skipz
  4993     0E40  2E43               	goto	u2085
  4994     0E41  301A               	movlw	26
  4995     0E42  0222               	subwf	??___fladd+2,w
  4996     0E43                     u2085:
  4997     0E43  1C03               	skipc
  4998     0E44  2E46               	goto	u2081
  4999     0E45  2E47               	goto	u2080
  5000     0E46                     u2081:
  5001     0E46  2E7E               	goto	l2089
  5002     0E47                     u2080:
  5003     0E47                     l2075:
  5004     0E47  0875               	movf	___fladd@b+3,w
  5005     0E48  0474               	iorwf	___fladd@b+2,w
  5006     0E49  0473               	iorwf	___fladd@b+1,w
  5007     0E4A  0472               	iorwf	___fladd@b,w
  5008     0E4B  1D03               	skipz
  5009     0E4C  2E4E               	goto	u2091
  5010     0E4D  2E50               	goto	u2090
  5011     0E4E                     u2091:
  5012     0E4E  3001               	movlw	1
  5013     0E4F  2E51               	goto	u2100
  5014     0E50                     u2090:
  5015     0E50  3000               	movlw	0
  5016     0E51                     u2100:
  5017     0E51  1283               	bcf	3,5	;RP0=0, select bank0
  5018     0E52  1303               	bcf	3,6	;RP1=0, select bank0
  5019     0E53  00AB               	movwf	___fladd@grs
  5020     0E54  3000               	movlw	0
  5021     0E55  00F5               	movwf	___fladd@b+3
  5022     0E56  3000               	movlw	0
  5023     0E57  00F4               	movwf	___fladd@b+2
  5024     0E58  3000               	movlw	0
  5025     0E59  00F3               	movwf	___fladd@b+1
  5026     0E5A  3000               	movlw	0
  5027     0E5B  00F2               	movwf	___fladd@b
  5028     0E5C  0829               	movf	___fladd@aexp,w
  5029     0E5D  00AA               	movwf	___fladd@bexp
  5030     0E5E  2E86               	goto	l700
  5031     0E5F                     l702:
  5032     0E5F  1C2B               	btfss	___fladd@grs,0
  5033     0E60  2E62               	goto	u2111
  5034     0E61  2E63               	goto	u2110
  5035     0E62                     u2111:
  5036     0E62  2E6A               	goto	l2079
  5037     0E63                     u2110:
  5038     0E63                     l2077:
  5039     0E63  082B               	movf	___fladd@grs,w
  5040     0E64  00A0               	movwf	??___fladd
  5041     0E65  1003               	clrc
  5042     0E66  0C20               	rrf	??___fladd,w
  5043     0E67  3801               	iorlw	1
  5044     0E68  00AB               	movwf	___fladd@grs
  5045     0E69  2E6C               	goto	l2081
  5046     0E6A                     l2079:
  5047     0E6A  1003               	clrc
  5048     0E6B  0CAB               	rrf	___fladd@grs,f
  5049     0E6C                     l2081:
  5050     0E6C  1C72               	btfss	___fladd@b,0
  5051     0E6D  2E6F               	goto	u2121
  5052     0E6E  2E70               	goto	u2120
  5053     0E6F                     u2121:
  5054     0E6F  2E71               	goto	l2085
  5055     0E70                     u2120:
  5056     0E70                     l2083:
  5057     0E70  17AB               	bsf	___fladd@grs,7
  5058     0E71                     l2085:
  5059     0E71  3001               	movlw	1
  5060     0E72  00A0               	movwf	??___fladd
  5061     0E73                     u2135:
  5062     0E73  0D75               	rlf	___fladd@b+3,w
  5063     0E74  0CF5               	rrf	___fladd@b+3,f
  5064     0E75  0CF4               	rrf	___fladd@b+2,f
  5065     0E76  0CF3               	rrf	___fladd@b+1,f
  5066     0E77  0CF2               	rrf	___fladd@b,f
  5067     0E78  0BA0               	decfsz	??___fladd& (0+127),f
  5068     0E79  2E73               	goto	u2135
  5069     0E7A                     l2087:
  5070     0E7A  3001               	movlw	1
  5071     0E7B  00FF               	movwf	btemp+1
  5072     0E7C  087F               	movf	btemp+1,w
  5073     0E7D  07AA               	addwf	___fladd@bexp,f
  5074     0E7E                     l2089:
  5075     0E7E  1283               	bcf	3,5	;RP0=0, select bank0
  5076     0E7F  1303               	bcf	3,6	;RP1=0, select bank0
  5077     0E80  0829               	movf	___fladd@aexp,w
  5078     0E81  022A               	subwf	___fladd@bexp,w
  5079     0E82  1C03               	skipc
  5080     0E83  2E85               	goto	u2141
  5081     0E84  2E86               	goto	u2140
  5082     0E85                     u2141:
  5083     0E85  2E5F               	goto	l702
  5084     0E86                     u2140:
  5085     0E86                     l700:
  5086     0E86  1B28               	btfsc	___fladd@signs,6
  5087     0E87  2E89               	goto	u2151
  5088     0E88  2E8A               	goto	u2150
  5089     0E89                     u2151:
  5090     0E89  2ED3               	goto	l2115
  5091     0E8A                     u2150:
  5092     0E8A                     l2091:
  5093     0E8A  082A               	movf	___fladd@bexp,w
  5094     0E8B  1D03               	btfss	3,2
  5095     0E8C  2E8E               	goto	u2161
  5096     0E8D  2E8F               	goto	u2160
  5097     0E8E                     u2161:
  5098     0E8E  2E98               	goto	l2097
  5099     0E8F                     u2160:
  5100     0E8F                     l2093:
  5101     0E8F  3000               	movlw	0
  5102     0E90  00F5               	movwf	?___fladd+3
  5103     0E91  3000               	movlw	0
  5104     0E92  00F4               	movwf	?___fladd+2
  5105     0E93  3000               	movlw	0
  5106     0E94  00F3               	movwf	?___fladd+1
  5107     0E95  3000               	movlw	0
  5108     0E96  00F2               	movwf	?___fladd
  5109     0E97  2FFF               	goto	l709
  5110     0E98                     l2097:
  5111     0E98  0876               	movf	___fladd@a,w
  5112     0E99  07F2               	addwf	___fladd@b,f
  5113     0E9A  0877               	movf	___fladd@a+1,w
  5114     0E9B  1103               	clrz
  5115     0E9C  1803               	skipnc
  5116     0E9D  3E01               	addlw	1
  5117     0E9E  1903               	skipnz
  5118     0E9F  2EA1               	goto	u2171
  5119     0EA0  07F3               	addwf	___fladd@b+1,f
  5120     0EA1                     u2171:
  5121     0EA1  0878               	movf	___fladd@a+2,w
  5122     0EA2  1103               	clrz
  5123     0EA3  1803               	skipnc
  5124     0EA4  3E01               	addlw	1
  5125     0EA5  1903               	skipnz
  5126     0EA6  2EA8               	goto	u2172
  5127     0EA7  07F4               	addwf	___fladd@b+2,f
  5128     0EA8                     u2172:
  5129     0EA8  0879               	movf	___fladd@a+3,w
  5130     0EA9  1103               	clrz
  5131     0EAA  1803               	skipnc
  5132     0EAB  3E01               	addlw	1
  5133     0EAC  1903               	skipnz
  5134     0EAD  2EAF               	goto	u2173
  5135     0EAE  07F5               	addwf	___fladd@b+3,f
  5136     0EAF                     u2173:
  5137     0EAF                     l2099:
  5138     0EAF  1C75               	btfss	___fladd@b+3,0
  5139     0EB0  2EB2               	goto	u2181
  5140     0EB1  2EB3               	goto	u2180
  5141     0EB2                     u2181:
  5142     0EB2  2F87               	goto	l2151
  5143     0EB3                     u2180:
  5144     0EB3                     l2101:
  5145     0EB3  1C2B               	btfss	___fladd@grs,0
  5146     0EB4  2EB6               	goto	u2191
  5147     0EB5  2EB7               	goto	u2190
  5148     0EB6                     u2191:
  5149     0EB6  2EBE               	goto	l2105
  5150     0EB7                     u2190:
  5151     0EB7                     l2103:
  5152     0EB7  082B               	movf	___fladd@grs,w
  5153     0EB8  00A0               	movwf	??___fladd
  5154     0EB9  1003               	clrc
  5155     0EBA  0C20               	rrf	??___fladd,w
  5156     0EBB  3801               	iorlw	1
  5157     0EBC  00AB               	movwf	___fladd@grs
  5158     0EBD  2EC0               	goto	l2107
  5159     0EBE                     l2105:
  5160     0EBE  1003               	clrc
  5161     0EBF  0CAB               	rrf	___fladd@grs,f
  5162     0EC0                     l2107:
  5163     0EC0  1C72               	btfss	___fladd@b,0
  5164     0EC1  2EC3               	goto	u2201
  5165     0EC2  2EC4               	goto	u2200
  5166     0EC3                     u2201:
  5167     0EC3  2EC5               	goto	l2111
  5168     0EC4                     u2200:
  5169     0EC4                     l2109:
  5170     0EC4  17AB               	bsf	___fladd@grs,7
  5171     0EC5                     l2111:
  5172     0EC5  3001               	movlw	1
  5173     0EC6  00A0               	movwf	??___fladd
  5174     0EC7                     u2215:
  5175     0EC7  0D75               	rlf	___fladd@b+3,w
  5176     0EC8  0CF5               	rrf	___fladd@b+3,f
  5177     0EC9  0CF4               	rrf	___fladd@b+2,f
  5178     0ECA  0CF3               	rrf	___fladd@b+1,f
  5179     0ECB  0CF2               	rrf	___fladd@b,f
  5180     0ECC  0BA0               	decfsz	??___fladd& (0+127),f
  5181     0ECD  2EC7               	goto	u2215
  5182     0ECE                     l2113:
  5183     0ECE  3001               	movlw	1
  5184     0ECF  00FF               	movwf	btemp+1
  5185     0ED0  087F               	movf	btemp+1,w
  5186     0ED1  07AA               	addwf	___fladd@bexp,f
  5187     0ED2  2F87               	goto	l2151
  5188     0ED3                     l2115:
  5189     0ED3  0875               	movf	___fladd@b+3,w
  5190     0ED4  3A80               	xorlw	128
  5191     0ED5  00FF               	movwf	btemp+1
  5192     0ED6  0879               	movf	___fladd@a+3,w
  5193     0ED7  3A80               	xorlw	128
  5194     0ED8  027F               	subwf	btemp+1,w
  5195     0ED9  1D03               	skipz
  5196     0EDA  2EE5               	goto	u2223
  5197     0EDB  0878               	movf	___fladd@a+2,w
  5198     0EDC  0274               	subwf	___fladd@b+2,w
  5199     0EDD  1D03               	skipz
  5200     0EDE  2EE5               	goto	u2223
  5201     0EDF  0877               	movf	___fladd@a+1,w
  5202     0EE0  0273               	subwf	___fladd@b+1,w
  5203     0EE1  1D03               	skipz
  5204     0EE2  2EE5               	goto	u2223
  5205     0EE3  0876               	movf	___fladd@a,w
  5206     0EE4  0272               	subwf	___fladd@b,w
  5207     0EE5                     u2223:
  5208     0EE5  1803               	skipnc
  5209     0EE6  2EE8               	goto	u2221
  5210     0EE7  2EE9               	goto	u2220
  5211     0EE8                     u2221:
  5212     0EE8  2F41               	goto	l2127
  5213     0EE9                     u2220:
  5214     0EE9                     l2117:
  5215     0EE9  30FF               	movlw	255
  5216     0EEA  00A0               	movwf	??___fladd
  5217     0EEB  30FF               	movlw	255
  5218     0EEC  00A1               	movwf	??___fladd+1
  5219     0EED  30FF               	movlw	255
  5220     0EEE  00A2               	movwf	??___fladd+2
  5221     0EEF  30FF               	movlw	255
  5222     0EF0  00A3               	movwf	??___fladd+3
  5223     0EF1  0876               	movf	___fladd@a,w
  5224     0EF2  00A4               	movwf	??___fladd+4
  5225     0EF3  0877               	movf	___fladd@a+1,w
  5226     0EF4  00A5               	movwf	??___fladd+5
  5227     0EF5  0878               	movf	___fladd@a+2,w
  5228     0EF6  00A6               	movwf	??___fladd+6
  5229     0EF7  0879               	movf	___fladd@a+3,w
  5230     0EF8  00A7               	movwf	??___fladd+7
  5231     0EF9  0872               	movf	___fladd@b,w
  5232     0EFA  02A4               	subwf	??___fladd+4,f
  5233     0EFB  0873               	movf	___fladd@b+1,w
  5234     0EFC  1C03               	skipc
  5235     0EFD  0F73               	incfsz	___fladd@b+1,w
  5236     0EFE  2F00               	goto	u2231
  5237     0EFF  2F01               	goto	u2232
  5238     0F00                     u2231:
  5239     0F00  02A5               	subwf	??___fladd+5,f
  5240     0F01                     u2232:
  5241     0F01  0874               	movf	___fladd@b+2,w
  5242     0F02  1C03               	skipc
  5243     0F03  0F74               	incfsz	___fladd@b+2,w
  5244     0F04  2F06               	goto	u2233
  5245     0F05  2F07               	goto	u2234
  5246     0F06                     u2233:
  5247     0F06  02A6               	subwf	??___fladd+6,f
  5248     0F07                     u2234:
  5249     0F07  0875               	movf	___fladd@b+3,w
  5250     0F08  1C03               	skipc
  5251     0F09  0F75               	incfsz	___fladd@b+3,w
  5252     0F0A  2F0C               	goto	u2235
  5253     0F0B  2F0D               	goto	u2236
  5254     0F0C                     u2235:
  5255     0F0C  02A7               	subwf	??___fladd+7,f
  5256     0F0D                     u2236:
  5257     0F0D  0824               	movf	??___fladd+4,w
  5258     0F0E  07A0               	addwf	??___fladd,f
  5259     0F0F  0825               	movf	??___fladd+5,w
  5260     0F10  1803               	skipnc
  5261     0F11  0F25               	incfsz	??___fladd+5,w
  5262     0F12  2F14               	goto	u2240
  5263     0F13  2F15               	goto	u2241
  5264     0F14                     u2240:
  5265     0F14  07A1               	addwf	??___fladd+1,f
  5266     0F15                     u2241:
  5267     0F15  0826               	movf	??___fladd+6,w
  5268     0F16  1803               	skipnc
  5269     0F17  0F26               	incfsz	??___fladd+6,w
  5270     0F18  2F1A               	goto	u2242
  5271     0F19  2F1B               	goto	u2243
  5272     0F1A                     u2242:
  5273     0F1A  07A2               	addwf	??___fladd+2,f
  5274     0F1B                     u2243:
  5275     0F1B  0827               	movf	??___fladd+7,w
  5276     0F1C  1803               	skipnc
  5277     0F1D  0A27               	incf	??___fladd+7,w
  5278     0F1E  07A3               	addwf	??___fladd+3,f
  5279     0F1F  0823               	movf	??___fladd+3,w
  5280     0F20  00F5               	movwf	___fladd@b+3
  5281     0F21  0822               	movf	??___fladd+2,w
  5282     0F22  00F4               	movwf	___fladd@b+2
  5283     0F23  0821               	movf	??___fladd+1,w
  5284     0F24  00F3               	movwf	___fladd@b+1
  5285     0F25  0820               	movf	??___fladd,w
  5286     0F26  00F2               	movwf	___fladd@b
  5287     0F27                     l2119:
  5288     0F27  3080               	movlw	128
  5289     0F28  00FF               	movwf	btemp+1
  5290     0F29  087F               	movf	btemp+1,w
  5291     0F2A  06A8               	xorwf	___fladd@signs,f
  5292     0F2B                     l2121:
  5293     0F2B  09AB               	comf	___fladd@grs,f
  5294     0F2C  0AAB               	incf	___fladd@grs,f
  5295     0F2D                     l2123:
  5296     0F2D  082B               	movf	___fladd@grs,w
  5297     0F2E  1D03               	btfss	3,2
  5298     0F2F  2F31               	goto	u2251
  5299     0F30  2F32               	goto	u2250
  5300     0F31                     u2251:
  5301     0F31  2F4F               	goto	l717
  5302     0F32                     u2250:
  5303     0F32                     l2125:
  5304     0F32  3001               	movlw	1
  5305     0F33  07F2               	addwf	___fladd@b,f
  5306     0F34  3000               	movlw	0
  5307     0F35  1803               	skipnc
  5308     0F36  3001               	movlw	1
  5309     0F37  07F3               	addwf	___fladd@b+1,f
  5310     0F38  3000               	movlw	0
  5311     0F39  1803               	skipnc
  5312     0F3A  3001               	movlw	1
  5313     0F3B  07F4               	addwf	___fladd@b+2,f
  5314     0F3C  3000               	movlw	0
  5315     0F3D  1803               	skipnc
  5316     0F3E  3001               	movlw	1
  5317     0F3F  07F5               	addwf	___fladd@b+3,f
  5318     0F40  2F4F               	goto	l717
  5319     0F41                     l2127:
  5320     0F41  0876               	movf	___fladd@a,w
  5321     0F42  02F2               	subwf	___fladd@b,f
  5322     0F43  0877               	movf	___fladd@a+1,w
  5323     0F44  1C03               	skipc
  5324     0F45  0F77               	incfsz	___fladd@a+1,w
  5325     0F46  02F3               	subwf	___fladd@b+1,f
  5326     0F47  0878               	movf	___fladd@a+2,w
  5327     0F48  1C03               	skipc
  5328     0F49  0F78               	incfsz	___fladd@a+2,w
  5329     0F4A  02F4               	subwf	___fladd@b+2,f
  5330     0F4B  0879               	movf	___fladd@a+3,w
  5331     0F4C  1C03               	skipc
  5332     0F4D  0F79               	incfsz	___fladd@a+3,w
  5333     0F4E  02F5               	subwf	___fladd@b+3,f
  5334     0F4F                     l717:
  5335     0F4F  0875               	movf	___fladd@b+3,w
  5336     0F50  0474               	iorwf	___fladd@b+2,w
  5337     0F51  0473               	iorwf	___fladd@b+1,w
  5338     0F52  0472               	iorwf	___fladd@b,w
  5339     0F53  1D03               	skipz
  5340     0F54  2F56               	goto	u2261
  5341     0F55  2F57               	goto	u2260
  5342     0F56                     u2261:
  5343     0F56  2F83               	goto	l2149
  5344     0F57                     u2260:
  5345     0F57                     l2129:
  5346     0F57  082B               	movf	___fladd@grs,w
  5347     0F58  1D03               	btfss	3,2
  5348     0F59  2F5B               	goto	u2271
  5349     0F5A  2F5C               	goto	u2270
  5350     0F5B                     u2271:
  5351     0F5B  2F83               	goto	l2149
  5352     0F5C                     u2270:
  5353     0F5C                     l2131:
  5354     0F5C  3000               	movlw	0
  5355     0F5D  00F5               	movwf	?___fladd+3
  5356     0F5E  3000               	movlw	0
  5357     0F5F  00F4               	movwf	?___fladd+2
  5358     0F60  3000               	movlw	0
  5359     0F61  00F3               	movwf	?___fladd+1
  5360     0F62  3000               	movlw	0
  5361     0F63  00F2               	movwf	?___fladd
  5362     0F64  2FFF               	goto	l709
  5363     0F65                     l2135:
  5364     0F65  3001               	movlw	1
  5365     0F66  00A0               	movwf	??___fladd
  5366     0F67                     u2285:
  5367     0F67  1003               	clrc
  5368     0F68  0DF2               	rlf	___fladd@b,f
  5369     0F69  0DF3               	rlf	___fladd@b+1,f
  5370     0F6A  0DF4               	rlf	___fladd@b+2,f
  5371     0F6B  0DF5               	rlf	___fladd@b+3,f
  5372     0F6C  0BA0               	decfsz	??___fladd,f
  5373     0F6D  2F67               	goto	u2285
  5374     0F6E                     l2137:
  5375     0F6E  1FAB               	btfss	___fladd@grs,7
  5376     0F6F  2F71               	goto	u2291
  5377     0F70  2F72               	goto	u2290
  5378     0F71                     u2291:
  5379     0F71  2F73               	goto	l721
  5380     0F72                     u2290:
  5381     0F72                     l2139:
  5382     0F72  1472               	bsf	___fladd@b,0
  5383     0F73                     l721:
  5384     0F73  1C2B               	btfss	___fladd@grs,0
  5385     0F74  2F76               	goto	u2301
  5386     0F75  2F77               	goto	u2300
  5387     0F76                     u2301:
  5388     0F76  2F7A               	goto	l2143
  5389     0F77                     u2300:
  5390     0F77                     l2141:
  5391     0F77  1403               	setc
  5392     0F78  0DAB               	rlf	___fladd@grs,f
  5393     0F79  2F7C               	goto	l2145
  5394     0F7A                     l2143:
  5395     0F7A  1003               	clrc
  5396     0F7B  0DAB               	rlf	___fladd@grs,f
  5397     0F7C                     l2145:
  5398     0F7C  082A               	movf	___fladd@bexp,w
  5399     0F7D  1903               	btfsc	3,2
  5400     0F7E  2F80               	goto	u2311
  5401     0F7F  2F81               	goto	u2310
  5402     0F80                     u2311:
  5403     0F80  2F83               	goto	l2149
  5404     0F81                     u2310:
  5405     0F81                     l2147:
  5406     0F81  3001               	movlw	1
  5407     0F82  02AA               	subwf	___fladd@bexp,f
  5408     0F83                     l2149:
  5409     0F83  1FF4               	btfss	___fladd@b+2,7
  5410     0F84  2F86               	goto	u2321
  5411     0F85  2F87               	goto	u2320
  5412     0F86                     u2321:
  5413     0F86  2F65               	goto	l2135
  5414     0F87                     u2320:
  5415     0F87                     l2151:
  5416     0F87  01A9               	clrf	___fladd@aexp
  5417     0F88                     l2153:
  5418     0F88  1FAB               	btfss	___fladd@grs,7
  5419     0F89  2F8B               	goto	u2331
  5420     0F8A  2F8C               	goto	u2330
  5421     0F8B                     u2331:
  5422     0F8B  2F9A               	goto	l2161
  5423     0F8C                     u2330:
  5424     0F8C                     l2155:
  5425     0F8C  082B               	movf	___fladd@grs,w
  5426     0F8D  397F               	andlw	127
  5427     0F8E  1903               	btfsc	3,2
  5428     0F8F  2F91               	goto	u2341
  5429     0F90  2F92               	goto	u2340
  5430     0F91                     u2341:
  5431     0F91  2F95               	goto	l727
  5432     0F92                     u2340:
  5433     0F92                     l2157:
  5434     0F92  01A9               	clrf	___fladd@aexp
  5435     0F93  0AA9               	incf	___fladd@aexp,f
  5436     0F94  2F9A               	goto	l2161
  5437     0F95                     l727:
  5438     0F95  1C72               	btfss	___fladd@b,0
  5439     0F96  2F98               	goto	u2351
  5440     0F97  2F99               	goto	u2350
  5441     0F98                     u2351:
  5442     0F98  2F9A               	goto	l2161
  5443     0F99                     u2350:
  5444     0F99  2F92               	goto	l2157
  5445     0F9A                     l2161:
  5446     0F9A  0829               	movf	___fladd@aexp,w
  5447     0F9B  1903               	btfsc	3,2
  5448     0F9C  2F9E               	goto	u2361
  5449     0F9D  2F9F               	goto	u2360
  5450     0F9E                     u2361:
  5451     0F9E  2FD3               	goto	l2171
  5452     0F9F                     u2360:
  5453     0F9F                     l2163:
  5454     0F9F  3001               	movlw	1
  5455     0FA0  07F2               	addwf	___fladd@b,f
  5456     0FA1  3000               	movlw	0
  5457     0FA2  1803               	skipnc
  5458     0FA3  3001               	movlw	1
  5459     0FA4  07F3               	addwf	___fladd@b+1,f
  5460     0FA5  3000               	movlw	0
  5461     0FA6  1803               	skipnc
  5462     0FA7  3001               	movlw	1
  5463     0FA8  07F4               	addwf	___fladd@b+2,f
  5464     0FA9  3000               	movlw	0
  5465     0FAA  1803               	skipnc
  5466     0FAB  3001               	movlw	1
  5467     0FAC  07F5               	addwf	___fladd@b+3,f
  5468     0FAD                     l2165:
  5469     0FAD  1C75               	btfss	___fladd@b+3,0
  5470     0FAE  2FB0               	goto	u2371
  5471     0FAF  2FB1               	goto	u2370
  5472     0FB0                     u2371:
  5473     0FB0  2FD3               	goto	l2171
  5474     0FB1                     u2370:
  5475     0FB1                     l2167:
  5476     0FB1  0872               	movf	___fladd@b,w
  5477     0FB2  00A0               	movwf	??___fladd
  5478     0FB3  0873               	movf	___fladd@b+1,w
  5479     0FB4  00A1               	movwf	??___fladd+1
  5480     0FB5  0874               	movf	___fladd@b+2,w
  5481     0FB6  00A2               	movwf	??___fladd+2
  5482     0FB7  0875               	movf	___fladd@b+3,w
  5483     0FB8  00A3               	movwf	??___fladd+3
  5484     0FB9  3001               	movlw	1
  5485     0FBA  00A4               	movwf	??___fladd+4
  5486     0FBB                     u2385:
  5487     0FBB  0D23               	rlf	??___fladd+3,w
  5488     0FBC  0CA3               	rrf	??___fladd+3,f
  5489     0FBD  0CA2               	rrf	??___fladd+2,f
  5490     0FBE  0CA1               	rrf	??___fladd+1,f
  5491     0FBF  0CA0               	rrf	??___fladd,f
  5492     0FC0                     u2380:
  5493     0FC0  0BA4               	decfsz	??___fladd+4,f
  5494     0FC1  2FBB               	goto	u2385
  5495     0FC2  0823               	movf	??___fladd+3,w
  5496     0FC3  00F5               	movwf	___fladd@b+3
  5497     0FC4  0822               	movf	??___fladd+2,w
  5498     0FC5  00F4               	movwf	___fladd@b+2
  5499     0FC6  0821               	movf	??___fladd+1,w
  5500     0FC7  00F3               	movwf	___fladd@b+1
  5501     0FC8  0820               	movf	??___fladd,w
  5502     0FC9  00F2               	movwf	___fladd@b
  5503     0FCA  0A2A               	incf	___fladd@bexp,w
  5504     0FCB  1903               	btfsc	3,2
  5505     0FCC  2FCE               	goto	u2391
  5506     0FCD  2FCF               	goto	u2390
  5507     0FCE                     u2391:
  5508     0FCE  2FD3               	goto	l2171
  5509     0FCF                     u2390:
  5510     0FCF                     l2169:
  5511     0FCF  3001               	movlw	1
  5512     0FD0  00FF               	movwf	btemp+1
  5513     0FD1  087F               	movf	btemp+1,w
  5514     0FD2  07AA               	addwf	___fladd@bexp,f
  5515     0FD3                     l2171:
  5516     0FD3  0A2A               	incf	___fladd@bexp,w
  5517     0FD4  1903               	btfsc	3,2
  5518     0FD5  2FD7               	goto	u2401
  5519     0FD6  2FD8               	goto	u2400
  5520     0FD7                     u2401:
  5521     0FD7  2FDD               	goto	l2175
  5522     0FD8                     u2400:
  5523     0FD8                     l2173:
  5524     0FD8  082A               	movf	___fladd@bexp,w
  5525     0FD9  1D03               	btfss	3,2
  5526     0FDA  2FDC               	goto	u2411
  5527     0FDB  2FDD               	goto	u2410
  5528     0FDC                     u2411:
  5529     0FDC  2FEB               	goto	l2181
  5530     0FDD                     u2410:
  5531     0FDD                     l2175:
  5532     0FDD  3000               	movlw	0
  5533     0FDE  00F5               	movwf	___fladd@b+3
  5534     0FDF  3000               	movlw	0
  5535     0FE0  00F4               	movwf	___fladd@b+2
  5536     0FE1  3000               	movlw	0
  5537     0FE2  00F3               	movwf	___fladd@b+1
  5538     0FE3  3000               	movlw	0
  5539     0FE4  00F2               	movwf	___fladd@b
  5540     0FE5                     l2177:
  5541     0FE5  082A               	movf	___fladd@bexp,w
  5542     0FE6  1D03               	btfss	3,2
  5543     0FE7  2FE9               	goto	u2421
  5544     0FE8  2FEA               	goto	u2420
  5545     0FE9                     u2421:
  5546     0FE9  2FEB               	goto	l2181
  5547     0FEA                     u2420:
  5548     0FEA                     l2179:
  5549     0FEA  01A8               	clrf	___fladd@signs
  5550     0FEB                     l2181:
  5551     0FEB  1C2A               	btfss	___fladd@bexp,0
  5552     0FEC  2FEE               	goto	u2431
  5553     0FED  2FEF               	goto	u2430
  5554     0FEE                     u2431:
  5555     0FEE  2FF1               	goto	l2185
  5556     0FEF                     u2430:
  5557     0FEF                     l2183:
  5558     0FEF  17F4               	bsf	___fladd@b+2,7
  5559     0FF0  2FF5               	goto	l2187
  5560     0FF1                     l2185:
  5561     0FF1  307F               	movlw	127
  5562     0FF2  00FF               	movwf	btemp+1
  5563     0FF3  087F               	movf	btemp+1,w
  5564     0FF4  05F4               	andwf	___fladd@b+2,f
  5565     0FF5                     l2187:
  5566     0FF5  082A               	movf	___fladd@bexp,w
  5567     0FF6  00A0               	movwf	??___fladd
  5568     0FF7  1003               	clrc
  5569     0FF8  0C20               	rrf	??___fladd,w
  5570     0FF9  00F5               	movwf	___fladd@b+3
  5571     0FFA                     l2189:
  5572     0FFA  1FA8               	btfss	___fladd@signs,7
  5573     0FFB  2FFD               	goto	u2441
  5574     0FFC  2FFE               	goto	u2440
  5575     0FFD                     u2441:
  5576     0FFD  2FFF               	goto	l739
  5577     0FFE                     u2440:
  5578     0FFE                     l2191:
  5579     0FFE  17F5               	bsf	___fladd@b+3,7
  5580     0FFF                     l739:
  5581     0FFF                     l709:
  5582     0FFF  0008               	return
  5583     1000                     __end_of___fladd:
  5584                           
  5585                           	psect	text12
  5586     03E4                     __ptext12:	
  5587 ;; *************** function ___flmul *****************
  5588 ;; Defined at:
  5589 ;;		line 8 in file "C:\Program Files\Microchip\xc8\v2.46\pic\sources\c99\common\sprcmul.c"
  5590 ;; Parameters:    Size  Location     Type
  5591 ;;  b               4    6[BANK0 ] unsigned char 
  5592 ;;  a               4   10[BANK0 ] unsigned char 
  5593 ;; Auto vars:     Size  Location     Type
  5594 ;;  prod            4   26[BANK0 ] struct .
  5595 ;;  grs             4   21[BANK0 ] unsigned long 
  5596 ;;  temp            2   30[BANK0 ] struct .
  5597 ;;  bexp            1   25[BANK0 ] unsigned char 
  5598 ;;  aexp            1   20[BANK0 ] unsigned char 
  5599 ;;  sign            1   19[BANK0 ] unsigned char 
  5600 ;; Return value:  Size  Location     Type
  5601 ;;                  4    6[BANK0 ] unsigned char 
  5602 ;; Registers used:
  5603 ;;		wreg, status,2, status,0, btemp+1, pclath, cstack
  5604 ;; Tracked objects:
  5605 ;;		On entry : 0/0
  5606 ;;		On exit  : 0/0
  5607 ;;		Unchanged: 0/0
  5608 ;; Data sizes:     COMMON   BANK0   BANK1   BANK3   BANK2
  5609 ;;      Params:         0       8       0       0       0
  5610 ;;      Locals:         0      13       0       0       0
  5611 ;;      Temps:          0       5       0       0       0
  5612 ;;      Totals:         0      26       0       0       0
  5613 ;;Total ram usage:       26 bytes
  5614 ;; Hardware stack levels used: 1
  5615 ;; Hardware stack levels required when called: 2
  5616 ;; This function calls:
  5617 ;;		__Umul8_16
  5618 ;; This function is called by:
  5619 ;;		_run_program
  5620 ;; This function uses a non-reentrant model
  5621 ;;
  5622                           
  5623     03E4                     ___flmul:	
  5624                           ;psect for function ___flmul
  5625                           
  5626     03E4                     l3143:	
  5627                           ;incstack = 0
  5628                           ; Regs used in ___flmul: [wreg+status,2+status,0+btemp+1+pclath+cstack]
  5629                           
  5630     03E4  1283               	bcf	3,5	;RP0=0, select bank0
  5631     03E5  1303               	bcf	3,6	;RP1=0, select bank0
  5632     03E6  0829               	movf	___flmul@b+3,w
  5633     03E7  3980               	andlw	128
  5634     03E8  00B3               	movwf	___flmul@sign
  5635     03E9                     l3145:
  5636     03E9  0829               	movf	___flmul@b+3,w
  5637     03EA  00AE               	movwf	??___flmul
  5638     03EB  072E               	addwf	??___flmul,w
  5639     03EC  00B9               	movwf	___flmul@bexp
  5640     03ED                     l3147:
  5641     03ED  1FA8               	btfss	___flmul@b+2,7
  5642     03EE  2BF0               	goto	u3991
  5643     03EF  2BF1               	goto	u3990
  5644     03F0                     u3991:
  5645     03F0  2BF2               	goto	l3151
  5646     03F1                     u3990:
  5647     03F1                     l3149:
  5648     03F1  1439               	bsf	___flmul@bexp,0
  5649     03F2                     l3151:
  5650     03F2  0839               	movf	___flmul@bexp,w
  5651     03F3  1903               	btfsc	3,2
  5652     03F4  2BF6               	goto	u4001
  5653     03F5  2BF7               	goto	u4000
  5654     03F6                     u4001:
  5655     03F6  2C06               	goto	l3159
  5656     03F7                     u4000:
  5657     03F7                     l3153:
  5658     03F7  0A39               	incf	___flmul@bexp,w
  5659     03F8  1D03               	btfss	3,2
  5660     03F9  2BFB               	goto	u4011
  5661     03FA  2BFC               	goto	u4010
  5662     03FB                     u4011:
  5663     03FB  2C04               	goto	l3157
  5664     03FC                     u4010:
  5665     03FC                     l3155:
  5666     03FC  3000               	movlw	0
  5667     03FD  00A9               	movwf	___flmul@b+3
  5668     03FE  3000               	movlw	0
  5669     03FF  00A8               	movwf	___flmul@b+2
  5670     0400  3000               	movlw	0
  5671     0401  00A7               	movwf	___flmul@b+1
  5672     0402  3000               	movlw	0
  5673     0403  00A6               	movwf	___flmul@b
  5674     0404                     l3157:
  5675     0404  17A8               	bsf	___flmul@b+2,7
  5676     0405  2C0E               	goto	l3161
  5677     0406                     l3159:
  5678     0406  3000               	movlw	0
  5679     0407  00A9               	movwf	___flmul@b+3
  5680     0408  3000               	movlw	0
  5681     0409  00A8               	movwf	___flmul@b+2
  5682     040A  3000               	movlw	0
  5683     040B  00A7               	movwf	___flmul@b+1
  5684     040C  3000               	movlw	0
  5685     040D  00A6               	movwf	___flmul@b
  5686     040E                     l3161:
  5687     040E  082D               	movf	___flmul@a+3,w
  5688     040F  3980               	andlw	128
  5689     0410  00FF               	movwf	btemp+1
  5690     0411  087F               	movf	btemp+1,w
  5691     0412  06B3               	xorwf	___flmul@sign,f
  5692     0413                     l3163:
  5693     0413  082D               	movf	___flmul@a+3,w
  5694     0414  00AE               	movwf	??___flmul
  5695     0415  072E               	addwf	??___flmul,w
  5696     0416  00B4               	movwf	___flmul@aexp
  5697     0417                     l3165:
  5698     0417  1FAC               	btfss	___flmul@a+2,7
  5699     0418  2C1A               	goto	u4021
  5700     0419  2C1B               	goto	u4020
  5701     041A                     u4021:
  5702     041A  2C1C               	goto	l3169
  5703     041B                     u4020:
  5704     041B                     l3167:
  5705     041B  1434               	bsf	___flmul@aexp,0
  5706     041C                     l3169:
  5707     041C  0834               	movf	___flmul@aexp,w
  5708     041D  1903               	btfsc	3,2
  5709     041E  2C20               	goto	u4031
  5710     041F  2C21               	goto	u4030
  5711     0420                     u4031:
  5712     0420  2C30               	goto	l3177
  5713     0421                     u4030:
  5714     0421                     l3171:
  5715     0421  0A34               	incf	___flmul@aexp,w
  5716     0422  1D03               	btfss	3,2
  5717     0423  2C25               	goto	u4041
  5718     0424  2C26               	goto	u4040
  5719     0425                     u4041:
  5720     0425  2C2E               	goto	l3175
  5721     0426                     u4040:
  5722     0426                     l3173:
  5723     0426  3000               	movlw	0
  5724     0427  00AD               	movwf	___flmul@a+3
  5725     0428  3000               	movlw	0
  5726     0429  00AC               	movwf	___flmul@a+2
  5727     042A  3000               	movlw	0
  5728     042B  00AB               	movwf	___flmul@a+1
  5729     042C  3000               	movlw	0
  5730     042D  00AA               	movwf	___flmul@a
  5731     042E                     l3175:
  5732     042E  17AC               	bsf	___flmul@a+2,7
  5733     042F  2C38               	goto	l3179
  5734     0430                     l3177:
  5735     0430  3000               	movlw	0
  5736     0431  00AD               	movwf	___flmul@a+3
  5737     0432  3000               	movlw	0
  5738     0433  00AC               	movwf	___flmul@a+2
  5739     0434  3000               	movlw	0
  5740     0435  00AB               	movwf	___flmul@a+1
  5741     0436  3000               	movlw	0
  5742     0437  00AA               	movwf	___flmul@a
  5743     0438                     l3179:
  5744     0438  0834               	movf	___flmul@aexp,w
  5745     0439  1903               	btfsc	3,2
  5746     043A  2C3C               	goto	u4051
  5747     043B  2C3D               	goto	u4050
  5748     043C                     u4051:
  5749     043C  2C42               	goto	l3183
  5750     043D                     u4050:
  5751     043D                     l3181:
  5752     043D  0839               	movf	___flmul@bexp,w
  5753     043E  1D03               	btfss	3,2
  5754     043F  2C41               	goto	u4061
  5755     0440  2C42               	goto	u4060
  5756     0441                     u4061:
  5757     0441  2C4B               	goto	l3187
  5758     0442                     u4060:
  5759     0442                     l3183:
  5760     0442  3000               	movlw	0
  5761     0443  00A9               	movwf	?___flmul+3
  5762     0444  3000               	movlw	0
  5763     0445  00A8               	movwf	?___flmul+2
  5764     0446  3000               	movlw	0
  5765     0447  00A7               	movwf	?___flmul+1
  5766     0448  3000               	movlw	0
  5767     0449  00A6               	movwf	?___flmul
  5768     044A  2F28               	goto	l792
  5769     044B                     l3187:
  5770     044B  0826               	movf	___flmul@b,w
  5771     044C  00F2               	movwf	__Umul8_16@multiplicand
  5772     044D  082C               	movf	___flmul@a+2,w
  5773     044E  160A  118A  25B2  120A  118A  	fcall	__Umul8_16
  5774     0453  0873               	movf	?__Umul8_16+1,w
  5775     0454  1283               	bcf	3,5	;RP0=0, select bank0
  5776     0455  1303               	bcf	3,6	;RP1=0, select bank0
  5777     0456  00BF               	movwf	___flmul@temp+1
  5778     0457  0872               	movf	?__Umul8_16,w
  5779     0458  00BE               	movwf	___flmul@temp
  5780     0459                     l3189:
  5781     0459  083E               	movf	___flmul@temp,w
  5782     045A  00AE               	movwf	??___flmul
  5783     045B  01AF               	clrf	??___flmul+1
  5784     045C  01B0               	clrf	??___flmul+2
  5785     045D  01B1               	clrf	??___flmul+3
  5786     045E  0831               	movf	??___flmul+3,w
  5787     045F  00B8               	movwf	___flmul@grs+3
  5788     0460  0830               	movf	??___flmul+2,w
  5789     0461  00B7               	movwf	___flmul@grs+2
  5790     0462  082F               	movf	??___flmul+1,w
  5791     0463  00B6               	movwf	___flmul@grs+1
  5792     0464  082E               	movf	??___flmul,w
  5793     0465  00B5               	movwf	___flmul@grs
  5794     0466                     l3191:
  5795     0466  083F               	movf	___flmul@temp+1,w
  5796     0467  00AE               	movwf	??___flmul
  5797     0468  01AF               	clrf	??___flmul+1
  5798     0469  01B0               	clrf	??___flmul+2
  5799     046A  01B1               	clrf	??___flmul+3
  5800     046B  0831               	movf	??___flmul+3,w
  5801     046C  00BD               	movwf	___flmul@prod+3
  5802     046D  0830               	movf	??___flmul+2,w
  5803     046E  00BC               	movwf	___flmul@prod+2
  5804     046F  082F               	movf	??___flmul+1,w
  5805     0470  00BB               	movwf	___flmul@prod+1
  5806     0471  082E               	movf	??___flmul,w
  5807     0472  00BA               	movwf	___flmul@prod
  5808     0473  0827               	movf	___flmul@b+1,w
  5809     0474  00F2               	movwf	__Umul8_16@multiplicand
  5810     0475  082B               	movf	___flmul@a+1,w
  5811     0476  160A  118A  25B2  120A  118A  	fcall	__Umul8_16
  5812     047B  0873               	movf	?__Umul8_16+1,w
  5813     047C  1283               	bcf	3,5	;RP0=0, select bank0
  5814     047D  1303               	bcf	3,6	;RP1=0, select bank0
  5815     047E  00BF               	movwf	___flmul@temp+1
  5816     047F  0872               	movf	?__Umul8_16,w
  5817     0480  00BE               	movwf	___flmul@temp
  5818     0481                     l3193:
  5819     0481  083E               	movf	___flmul@temp,w
  5820     0482  00AE               	movwf	??___flmul
  5821     0483  01AF               	clrf	??___flmul+1
  5822     0484  01B0               	clrf	??___flmul+2
  5823     0485  01B1               	clrf	??___flmul+3
  5824     0486  082E               	movf	??___flmul,w
  5825     0487  07B5               	addwf	___flmul@grs,f
  5826     0488  082F               	movf	??___flmul+1,w
  5827     0489  1103               	clrz
  5828     048A  1803               	skipnc
  5829     048B  3E01               	addlw	1
  5830     048C  1903               	skipnz
  5831     048D  2C8F               	goto	u4071
  5832     048E  07B6               	addwf	___flmul@grs+1,f
  5833     048F                     u4071:
  5834     048F  0830               	movf	??___flmul+2,w
  5835     0490  1103               	clrz
  5836     0491  1803               	skipnc
  5837     0492  3E01               	addlw	1
  5838     0493  1903               	skipnz
  5839     0494  2C96               	goto	u4072
  5840     0495  07B7               	addwf	___flmul@grs+2,f
  5841     0496                     u4072:
  5842     0496  0831               	movf	??___flmul+3,w
  5843     0497  1103               	clrz
  5844     0498  1803               	skipnc
  5845     0499  3E01               	addlw	1
  5846     049A  1903               	skipnz
  5847     049B  2C9D               	goto	u4073
  5848     049C  07B8               	addwf	___flmul@grs+3,f
  5849     049D                     u4073:
  5850     049D                     l3195:
  5851     049D  083F               	movf	___flmul@temp+1,w
  5852     049E  00AE               	movwf	??___flmul
  5853     049F  01AF               	clrf	??___flmul+1
  5854     04A0  01B0               	clrf	??___flmul+2
  5855     04A1  01B1               	clrf	??___flmul+3
  5856     04A2  082E               	movf	??___flmul,w
  5857     04A3  07BA               	addwf	___flmul@prod,f
  5858     04A4  082F               	movf	??___flmul+1,w
  5859     04A5  1103               	clrz
  5860     04A6  1803               	skipnc
  5861     04A7  3E01               	addlw	1
  5862     04A8  1903               	skipnz
  5863     04A9  2CAB               	goto	u4081
  5864     04AA  07BB               	addwf	___flmul@prod+1,f
  5865     04AB                     u4081:
  5866     04AB  0830               	movf	??___flmul+2,w
  5867     04AC  1103               	clrz
  5868     04AD  1803               	skipnc
  5869     04AE  3E01               	addlw	1
  5870     04AF  1903               	skipnz
  5871     04B0  2CB2               	goto	u4082
  5872     04B1  07BC               	addwf	___flmul@prod+2,f
  5873     04B2                     u4082:
  5874     04B2  0831               	movf	??___flmul+3,w
  5875     04B3  1103               	clrz
  5876     04B4  1803               	skipnc
  5877     04B5  3E01               	addlw	1
  5878     04B6  1903               	skipnz
  5879     04B7  2CB9               	goto	u4083
  5880     04B8  07BD               	addwf	___flmul@prod+3,f
  5881     04B9                     u4083:
  5882     04B9  0828               	movf	___flmul@b+2,w
  5883     04BA  00F2               	movwf	__Umul8_16@multiplicand
  5884     04BB  082A               	movf	___flmul@a,w
  5885     04BC  160A  118A  25B2  120A  118A  	fcall	__Umul8_16
  5886     04C1  0873               	movf	?__Umul8_16+1,w
  5887     04C2  1283               	bcf	3,5	;RP0=0, select bank0
  5888     04C3  1303               	bcf	3,6	;RP1=0, select bank0
  5889     04C4  00BF               	movwf	___flmul@temp+1
  5890     04C5  0872               	movf	?__Umul8_16,w
  5891     04C6  00BE               	movwf	___flmul@temp
  5892     04C7                     l3197:
  5893     04C7  083E               	movf	___flmul@temp,w
  5894     04C8  00AE               	movwf	??___flmul
  5895     04C9  01AF               	clrf	??___flmul+1
  5896     04CA  01B0               	clrf	??___flmul+2
  5897     04CB  01B1               	clrf	??___flmul+3
  5898     04CC  082E               	movf	??___flmul,w
  5899     04CD  07B5               	addwf	___flmul@grs,f
  5900     04CE  082F               	movf	??___flmul+1,w
  5901     04CF  1103               	clrz
  5902     04D0  1803               	skipnc
  5903     04D1  3E01               	addlw	1
  5904     04D2  1903               	skipnz
  5905     04D3  2CD5               	goto	u4091
  5906     04D4  07B6               	addwf	___flmul@grs+1,f
  5907     04D5                     u4091:
  5908     04D5  0830               	movf	??___flmul+2,w
  5909     04D6  1103               	clrz
  5910     04D7  1803               	skipnc
  5911     04D8  3E01               	addlw	1
  5912     04D9  1903               	skipnz
  5913     04DA  2CDC               	goto	u4092
  5914     04DB  07B7               	addwf	___flmul@grs+2,f
  5915     04DC                     u4092:
  5916     04DC  0831               	movf	??___flmul+3,w
  5917     04DD  1103               	clrz
  5918     04DE  1803               	skipnc
  5919     04DF  3E01               	addlw	1
  5920     04E0  1903               	skipnz
  5921     04E1  2CE3               	goto	u4093
  5922     04E2  07B8               	addwf	___flmul@grs+3,f
  5923     04E3                     u4093:
  5924     04E3                     l3199:
  5925     04E3  083F               	movf	___flmul@temp+1,w
  5926     04E4  00AE               	movwf	??___flmul
  5927     04E5  01AF               	clrf	??___flmul+1
  5928     04E6  01B0               	clrf	??___flmul+2
  5929     04E7  01B1               	clrf	??___flmul+3
  5930     04E8  082E               	movf	??___flmul,w
  5931     04E9  07BA               	addwf	___flmul@prod,f
  5932     04EA  082F               	movf	??___flmul+1,w
  5933     04EB  1103               	clrz
  5934     04EC  1803               	skipnc
  5935     04ED  3E01               	addlw	1
  5936     04EE  1903               	skipnz
  5937     04EF  2CF1               	goto	u4101
  5938     04F0  07BB               	addwf	___flmul@prod+1,f
  5939     04F1                     u4101:
  5940     04F1  0830               	movf	??___flmul+2,w
  5941     04F2  1103               	clrz
  5942     04F3  1803               	skipnc
  5943     04F4  3E01               	addlw	1
  5944     04F5  1903               	skipnz
  5945     04F6  2CF8               	goto	u4102
  5946     04F7  07BC               	addwf	___flmul@prod+2,f
  5947     04F8                     u4102:
  5948     04F8  0831               	movf	??___flmul+3,w
  5949     04F9  1103               	clrz
  5950     04FA  1803               	skipnc
  5951     04FB  3E01               	addlw	1
  5952     04FC  1903               	skipnz
  5953     04FD  2CFF               	goto	u4103
  5954     04FE  07BD               	addwf	___flmul@prod+3,f
  5955     04FF                     u4103:
  5956     04FF                     l3201:
  5957     04FF  3008               	movlw	8
  5958     0500  00AE               	movwf	??___flmul
  5959     0501                     u4115:
  5960     0501  1003               	clrc
  5961     0502  0DB5               	rlf	___flmul@grs,f
  5962     0503  0DB6               	rlf	___flmul@grs+1,f
  5963     0504  0DB7               	rlf	___flmul@grs+2,f
  5964     0505  0DB8               	rlf	___flmul@grs+3,f
  5965     0506  0BAE               	decfsz	??___flmul,f
  5966     0507  2D01               	goto	u4115
  5967     0508                     l3203:
  5968     0508  0827               	movf	___flmul@b+1,w
  5969     0509  00F2               	movwf	__Umul8_16@multiplicand
  5970     050A  082A               	movf	___flmul@a,w
  5971     050B  160A  118A  25B2  120A  118A  	fcall	__Umul8_16
  5972     0510  0873               	movf	?__Umul8_16+1,w
  5973     0511  1283               	bcf	3,5	;RP0=0, select bank0
  5974     0512  1303               	bcf	3,6	;RP1=0, select bank0
  5975     0513  00BF               	movwf	___flmul@temp+1
  5976     0514  0872               	movf	?__Umul8_16,w
  5977     0515  00BE               	movwf	___flmul@temp
  5978     0516                     l3205:
  5979     0516  083E               	movf	___flmul@temp,w
  5980     0517  00AE               	movwf	??___flmul
  5981     0518  083F               	movf	___flmul@temp+1,w
  5982     0519  00AF               	movwf	??___flmul+1
  5983     051A  01B0               	clrf	??___flmul+2
  5984     051B  01B1               	clrf	??___flmul+3
  5985     051C  082E               	movf	??___flmul,w
  5986     051D  07B5               	addwf	___flmul@grs,f
  5987     051E  082F               	movf	??___flmul+1,w
  5988     051F  1103               	clrz
  5989     0520  1803               	skipnc
  5990     0521  3E01               	addlw	1
  5991     0522  1903               	skipnz
  5992     0523  2D25               	goto	u4121
  5993     0524  07B6               	addwf	___flmul@grs+1,f
  5994     0525                     u4121:
  5995     0525  0830               	movf	??___flmul+2,w
  5996     0526  1103               	clrz
  5997     0527  1803               	skipnc
  5998     0528  3E01               	addlw	1
  5999     0529  1903               	skipnz
  6000     052A  2D2C               	goto	u4122
  6001     052B  07B7               	addwf	___flmul@grs+2,f
  6002     052C                     u4122:
  6003     052C  0831               	movf	??___flmul+3,w
  6004     052D  1103               	clrz
  6005     052E  1803               	skipnc
  6006     052F  3E01               	addlw	1
  6007     0530  1903               	skipnz
  6008     0531  2D33               	goto	u4123
  6009     0532  07B8               	addwf	___flmul@grs+3,f
  6010     0533                     u4123:
  6011     0533                     l3207:
  6012     0533  0826               	movf	___flmul@b,w
  6013     0534  00F2               	movwf	__Umul8_16@multiplicand
  6014     0535  082B               	movf	___flmul@a+1,w
  6015     0536  160A  118A  25B2  120A  118A  	fcall	__Umul8_16
  6016     053B  0873               	movf	?__Umul8_16+1,w
  6017     053C  1283               	bcf	3,5	;RP0=0, select bank0
  6018     053D  1303               	bcf	3,6	;RP1=0, select bank0
  6019     053E  00BF               	movwf	___flmul@temp+1
  6020     053F  0872               	movf	?__Umul8_16,w
  6021     0540  00BE               	movwf	___flmul@temp
  6022     0541                     l3209:
  6023     0541  083E               	movf	___flmul@temp,w
  6024     0542  00AE               	movwf	??___flmul
  6025     0543  083F               	movf	___flmul@temp+1,w
  6026     0544  00AF               	movwf	??___flmul+1
  6027     0545  01B0               	clrf	??___flmul+2
  6028     0546  01B1               	clrf	??___flmul+3
  6029     0547  082E               	movf	??___flmul,w
  6030     0548  07B5               	addwf	___flmul@grs,f
  6031     0549  082F               	movf	??___flmul+1,w
  6032     054A  1103               	clrz
  6033     054B  1803               	skipnc
  6034     054C  3E01               	addlw	1
  6035     054D  1903               	skipnz
  6036     054E  2D50               	goto	u4131
  6037     054F  07B6               	addwf	___flmul@grs+1,f
  6038     0550                     u4131:
  6039     0550  0830               	movf	??___flmul+2,w
  6040     0551  1103               	clrz
  6041     0552  1803               	skipnc
  6042     0553  3E01               	addlw	1
  6043     0554  1903               	skipnz
  6044     0555  2D57               	goto	u4132
  6045     0556  07B7               	addwf	___flmul@grs+2,f
  6046     0557                     u4132:
  6047     0557  0831               	movf	??___flmul+3,w
  6048     0558  1103               	clrz
  6049     0559  1803               	skipnc
  6050     055A  3E01               	addlw	1
  6051     055B  1903               	skipnz
  6052     055C  2D5E               	goto	u4133
  6053     055D  07B8               	addwf	___flmul@grs+3,f
  6054     055E                     u4133:
  6055     055E                     l3211:
  6056     055E  3008               	movlw	8
  6057     055F  00AE               	movwf	??___flmul
  6058     0560                     u4145:
  6059     0560  1003               	clrc
  6060     0561  0DB5               	rlf	___flmul@grs,f
  6061     0562  0DB6               	rlf	___flmul@grs+1,f
  6062     0563  0DB7               	rlf	___flmul@grs+2,f
  6063     0564  0DB8               	rlf	___flmul@grs+3,f
  6064     0565  0BAE               	decfsz	??___flmul,f
  6065     0566  2D60               	goto	u4145
  6066     0567  0826               	movf	___flmul@b,w
  6067     0568  00F2               	movwf	__Umul8_16@multiplicand
  6068     0569  082A               	movf	___flmul@a,w
  6069     056A  160A  118A  25B2  120A  118A  	fcall	__Umul8_16
  6070     056F  0873               	movf	?__Umul8_16+1,w
  6071     0570  1283               	bcf	3,5	;RP0=0, select bank0
  6072     0571  1303               	bcf	3,6	;RP1=0, select bank0
  6073     0572  00BF               	movwf	___flmul@temp+1
  6074     0573  0872               	movf	?__Umul8_16,w
  6075     0574  00BE               	movwf	___flmul@temp
  6076     0575                     l3213:
  6077     0575  083E               	movf	___flmul@temp,w
  6078     0576  00AE               	movwf	??___flmul
  6079     0577  083F               	movf	___flmul@temp+1,w
  6080     0578  00AF               	movwf	??___flmul+1
  6081     0579  01B0               	clrf	??___flmul+2
  6082     057A  01B1               	clrf	??___flmul+3
  6083     057B  082E               	movf	??___flmul,w
  6084     057C  07B5               	addwf	___flmul@grs,f
  6085     057D  082F               	movf	??___flmul+1,w
  6086     057E  1103               	clrz
  6087     057F  1803               	skipnc
  6088     0580  3E01               	addlw	1
  6089     0581  1903               	skipnz
  6090     0582  2D84               	goto	u4151
  6091     0583  07B6               	addwf	___flmul@grs+1,f
  6092     0584                     u4151:
  6093     0584  0830               	movf	??___flmul+2,w
  6094     0585  1103               	clrz
  6095     0586  1803               	skipnc
  6096     0587  3E01               	addlw	1
  6097     0588  1903               	skipnz
  6098     0589  2D8B               	goto	u4152
  6099     058A  07B7               	addwf	___flmul@grs+2,f
  6100     058B                     u4152:
  6101     058B  0831               	movf	??___flmul+3,w
  6102     058C  1103               	clrz
  6103     058D  1803               	skipnc
  6104     058E  3E01               	addlw	1
  6105     058F  1903               	skipnz
  6106     0590  2D92               	goto	u4153
  6107     0591  07B8               	addwf	___flmul@grs+3,f
  6108     0592                     u4153:
  6109     0592                     l3215:
  6110     0592  0827               	movf	___flmul@b+1,w
  6111     0593  00F2               	movwf	__Umul8_16@multiplicand
  6112     0594  082C               	movf	___flmul@a+2,w
  6113     0595  160A  118A  25B2  120A  118A  	fcall	__Umul8_16
  6114     059A  0873               	movf	?__Umul8_16+1,w
  6115     059B  1283               	bcf	3,5	;RP0=0, select bank0
  6116     059C  1303               	bcf	3,6	;RP1=0, select bank0
  6117     059D  00BF               	movwf	___flmul@temp+1
  6118     059E  0872               	movf	?__Umul8_16,w
  6119     059F  00BE               	movwf	___flmul@temp
  6120     05A0  083E               	movf	___flmul@temp,w
  6121     05A1  00AE               	movwf	??___flmul
  6122     05A2  083F               	movf	___flmul@temp+1,w
  6123     05A3  00AF               	movwf	??___flmul+1
  6124     05A4  01B0               	clrf	??___flmul+2
  6125     05A5  01B1               	clrf	??___flmul+3
  6126     05A6  082E               	movf	??___flmul,w
  6127     05A7  07BA               	addwf	___flmul@prod,f
  6128     05A8  082F               	movf	??___flmul+1,w
  6129     05A9  1103               	clrz
  6130     05AA  1803               	skipnc
  6131     05AB  3E01               	addlw	1
  6132     05AC  1903               	skipnz
  6133     05AD  2DAF               	goto	u4161
  6134     05AE  07BB               	addwf	___flmul@prod+1,f
  6135     05AF                     u4161:
  6136     05AF  0830               	movf	??___flmul+2,w
  6137     05B0  1103               	clrz
  6138     05B1  1803               	skipnc
  6139     05B2  3E01               	addlw	1
  6140     05B3  1903               	skipnz
  6141     05B4  2DB6               	goto	u4162
  6142     05B5  07BC               	addwf	___flmul@prod+2,f
  6143     05B6                     u4162:
  6144     05B6  0831               	movf	??___flmul+3,w
  6145     05B7  1103               	clrz
  6146     05B8  1803               	skipnc
  6147     05B9  3E01               	addlw	1
  6148     05BA  1903               	skipnz
  6149     05BB  2DBD               	goto	u4163
  6150     05BC  07BD               	addwf	___flmul@prod+3,f
  6151     05BD                     u4163:
  6152     05BD                     l3217:
  6153     05BD  0828               	movf	___flmul@b+2,w
  6154     05BE  00F2               	movwf	__Umul8_16@multiplicand
  6155     05BF  082B               	movf	___flmul@a+1,w
  6156     05C0  160A  118A  25B2  120A  118A  	fcall	__Umul8_16
  6157     05C5  0873               	movf	?__Umul8_16+1,w
  6158     05C6  1283               	bcf	3,5	;RP0=0, select bank0
  6159     05C7  1303               	bcf	3,6	;RP1=0, select bank0
  6160     05C8  00BF               	movwf	___flmul@temp+1
  6161     05C9  0872               	movf	?__Umul8_16,w
  6162     05CA  00BE               	movwf	___flmul@temp
  6163     05CB                     l3219:
  6164     05CB  083E               	movf	___flmul@temp,w
  6165     05CC  00AE               	movwf	??___flmul
  6166     05CD  083F               	movf	___flmul@temp+1,w
  6167     05CE  00AF               	movwf	??___flmul+1
  6168     05CF  01B0               	clrf	??___flmul+2
  6169     05D0  01B1               	clrf	??___flmul+3
  6170     05D1  082E               	movf	??___flmul,w
  6171     05D2  07BA               	addwf	___flmul@prod,f
  6172     05D3  082F               	movf	??___flmul+1,w
  6173     05D4  1103               	clrz
  6174     05D5  1803               	skipnc
  6175     05D6  3E01               	addlw	1
  6176     05D7  1903               	skipnz
  6177     05D8  2DDA               	goto	u4171
  6178     05D9  07BB               	addwf	___flmul@prod+1,f
  6179     05DA                     u4171:
  6180     05DA  0830               	movf	??___flmul+2,w
  6181     05DB  1103               	clrz
  6182     05DC  1803               	skipnc
  6183     05DD  3E01               	addlw	1
  6184     05DE  1903               	skipnz
  6185     05DF  2DE1               	goto	u4172
  6186     05E0  07BC               	addwf	___flmul@prod+2,f
  6187     05E1                     u4172:
  6188     05E1  0831               	movf	??___flmul+3,w
  6189     05E2  1103               	clrz
  6190     05E3  1803               	skipnc
  6191     05E4  3E01               	addlw	1
  6192     05E5  1903               	skipnz
  6193     05E6  2DE8               	goto	u4173
  6194     05E7  07BD               	addwf	___flmul@prod+3,f
  6195     05E8                     u4173:
  6196     05E8  0828               	movf	___flmul@b+2,w
  6197     05E9  00F2               	movwf	__Umul8_16@multiplicand
  6198     05EA  082C               	movf	___flmul@a+2,w
  6199     05EB  160A  118A  25B2  120A  118A  	fcall	__Umul8_16
  6200     05F0  0873               	movf	?__Umul8_16+1,w
  6201     05F1  1283               	bcf	3,5	;RP0=0, select bank0
  6202     05F2  1303               	bcf	3,6	;RP1=0, select bank0
  6203     05F3  00BF               	movwf	___flmul@temp+1
  6204     05F4  0872               	movf	?__Umul8_16,w
  6205     05F5  00BE               	movwf	___flmul@temp
  6206     05F6                     l3221:
  6207     05F6  083E               	movf	___flmul@temp,w
  6208     05F7  00AE               	movwf	??___flmul
  6209     05F8  083F               	movf	___flmul@temp+1,w
  6210     05F9  00AF               	movwf	??___flmul+1
  6211     05FA  01B0               	clrf	??___flmul+2
  6212     05FB  01B1               	clrf	??___flmul+3
  6213     05FC  3008               	movlw	8
  6214     05FD                     u4185:
  6215     05FD  1003               	clrc
  6216     05FE  0DAE               	rlf	??___flmul,f
  6217     05FF  0DAF               	rlf	??___flmul+1,f
  6218     0600  0DB0               	rlf	??___flmul+2,f
  6219     0601  0DB1               	rlf	??___flmul+3,f
  6220     0602                     u4180:
  6221     0602  3EFF               	addlw	-1
  6222     0603  1D03               	skipz
  6223     0604  2DFD               	goto	u4185
  6224     0605  082E               	movf	??___flmul,w
  6225     0606  07BA               	addwf	___flmul@prod,f
  6226     0607  082F               	movf	??___flmul+1,w
  6227     0608  1103               	clrz
  6228     0609  1803               	skipnc
  6229     060A  3E01               	addlw	1
  6230     060B  1903               	skipnz
  6231     060C  2E0E               	goto	u4191
  6232     060D  07BB               	addwf	___flmul@prod+1,f
  6233     060E                     u4191:
  6234     060E  0830               	movf	??___flmul+2,w
  6235     060F  1103               	clrz
  6236     0610  1803               	skipnc
  6237     0611  3E01               	addlw	1
  6238     0612  1903               	skipnz
  6239     0613  2E15               	goto	u4192
  6240     0614  07BC               	addwf	___flmul@prod+2,f
  6241     0615                     u4192:
  6242     0615  0831               	movf	??___flmul+3,w
  6243     0616  1103               	clrz
  6244     0617  1803               	skipnc
  6245     0618  3E01               	addlw	1
  6246     0619  1903               	skipnz
  6247     061A  2E1C               	goto	u4193
  6248     061B  07BD               	addwf	___flmul@prod+3,f
  6249     061C                     u4193:
  6250     061C                     l3223:
  6251     061C  0835               	movf	___flmul@grs,w
  6252     061D  00AE               	movwf	??___flmul
  6253     061E  0836               	movf	___flmul@grs+1,w
  6254     061F  00AF               	movwf	??___flmul+1
  6255     0620  0837               	movf	___flmul@grs+2,w
  6256     0621  00B0               	movwf	??___flmul+2
  6257     0622  0838               	movf	___flmul@grs+3,w
  6258     0623  00B1               	movwf	??___flmul+3
  6259     0624  3018               	movlw	24
  6260     0625                     u4205:
  6261     0625  1003               	clrc
  6262     0626  0CB1               	rrf	??___flmul+3,f
  6263     0627  0CB0               	rrf	??___flmul+2,f
  6264     0628  0CAF               	rrf	??___flmul+1,f
  6265     0629  0CAE               	rrf	??___flmul,f
  6266     062A                     u4200:
  6267     062A  3EFF               	addlw	-1
  6268     062B  1D03               	skipz
  6269     062C  2E25               	goto	u4205
  6270     062D  082E               	movf	??___flmul,w
  6271     062E  07BA               	addwf	___flmul@prod,f
  6272     062F  082F               	movf	??___flmul+1,w
  6273     0630  1103               	clrz
  6274     0631  1803               	skipnc
  6275     0632  3E01               	addlw	1
  6276     0633  1903               	skipnz
  6277     0634  2E36               	goto	u4211
  6278     0635  07BB               	addwf	___flmul@prod+1,f
  6279     0636                     u4211:
  6280     0636  0830               	movf	??___flmul+2,w
  6281     0637  1103               	clrz
  6282     0638  1803               	skipnc
  6283     0639  3E01               	addlw	1
  6284     063A  1903               	skipnz
  6285     063B  2E3D               	goto	u4212
  6286     063C  07BC               	addwf	___flmul@prod+2,f
  6287     063D                     u4212:
  6288     063D  0831               	movf	??___flmul+3,w
  6289     063E  1103               	clrz
  6290     063F  1803               	skipnc
  6291     0640  3E01               	addlw	1
  6292     0641  1903               	skipnz
  6293     0642  2E44               	goto	u4213
  6294     0643  07BD               	addwf	___flmul@prod+3,f
  6295     0644                     u4213:
  6296     0644                     l3225:
  6297     0644  3008               	movlw	8
  6298     0645  00AE               	movwf	??___flmul
  6299     0646                     u4225:
  6300     0646  1003               	clrc
  6301     0647  0DB5               	rlf	___flmul@grs,f
  6302     0648  0DB6               	rlf	___flmul@grs+1,f
  6303     0649  0DB7               	rlf	___flmul@grs+2,f
  6304     064A  0DB8               	rlf	___flmul@grs+3,f
  6305     064B  0BAE               	decfsz	??___flmul,f
  6306     064C  2E46               	goto	u4225
  6307     064D                     l3227:
  6308     064D  0839               	movf	___flmul@bexp,w
  6309     064E  0734               	addwf	___flmul@aexp,w
  6310     064F  00AE               	movwf	??___flmul
  6311     0650  01AF               	clrf	??___flmul+1
  6312     0651  0DAF               	rlf	??___flmul+1,f
  6313     0652  082E               	movf	??___flmul,w
  6314     0653  3E82               	addlw	130
  6315     0654  00BE               	movwf	___flmul@temp
  6316     0655  082F               	movf	??___flmul+1,w
  6317     0656  1803               	skipnc
  6318     0657  3E01               	addlw	1
  6319     0658  3EFF               	addlw	255
  6320     0659  00BF               	movwf	___flmul@temp+1
  6321     065A  2E78               	goto	l3239
  6322     065B                     l3229:
  6323     065B  3001               	movlw	1
  6324     065C  00AE               	movwf	??___flmul
  6325     065D                     u4235:
  6326     065D  1003               	clrc
  6327     065E  0DBA               	rlf	___flmul@prod,f
  6328     065F  0DBB               	rlf	___flmul@prod+1,f
  6329     0660  0DBC               	rlf	___flmul@prod+2,f
  6330     0661  0DBD               	rlf	___flmul@prod+3,f
  6331     0662  0BAE               	decfsz	??___flmul,f
  6332     0663  2E5D               	goto	u4235
  6333     0664                     l3231:
  6334     0664  1FB8               	btfss	___flmul@grs+3,7
  6335     0665  2E67               	goto	u4241
  6336     0666  2E68               	goto	u4240
  6337     0667                     u4241:
  6338     0667  2E69               	goto	l3235
  6339     0668                     u4240:
  6340     0668                     l3233:
  6341     0668  143A               	bsf	___flmul@prod,0
  6342     0669                     l3235:
  6343     0669  3001               	movlw	1
  6344     066A  00AE               	movwf	??___flmul
  6345     066B                     u4255:
  6346     066B  1003               	clrc
  6347     066C  0DB5               	rlf	___flmul@grs,f
  6348     066D  0DB6               	rlf	___flmul@grs+1,f
  6349     066E  0DB7               	rlf	___flmul@grs+2,f
  6350     066F  0DB8               	rlf	___flmul@grs+3,f
  6351     0670  0BAE               	decfsz	??___flmul,f
  6352     0671  2E6B               	goto	u4255
  6353     0672                     l3237:
  6354     0672  30FF               	movlw	255
  6355     0673  07BE               	addwf	___flmul@temp,f
  6356     0674  1803               	skipnc
  6357     0675  0ABF               	incf	___flmul@temp+1,f
  6358     0676  30FF               	movlw	255
  6359     0677  07BF               	addwf	___flmul@temp+1,f
  6360     0678                     l3239:
  6361     0678  1FBC               	btfss	___flmul@prod+2,7
  6362     0679  2E7B               	goto	u4261
  6363     067A  2E7C               	goto	u4260
  6364     067B                     u4261:
  6365     067B  2E5B               	goto	l3229
  6366     067C                     u4260:
  6367     067C                     l3241:
  6368     067C  01B4               	clrf	___flmul@aexp
  6369     067D                     l3243:
  6370     067D  1FB8               	btfss	___flmul@grs+3,7
  6371     067E  2E80               	goto	u4271
  6372     067F  2E81               	goto	u4270
  6373     0680                     u4271:
  6374     0680  2E9D               	goto	l3251
  6375     0681                     u4270:
  6376     0681                     l3245:
  6377     0681  30FF               	movlw	255
  6378     0682  0535               	andwf	___flmul@grs,w
  6379     0683  00AE               	movwf	??___flmul
  6380     0684  30FF               	movlw	255
  6381     0685  0536               	andwf	___flmul@grs+1,w
  6382     0686  00AF               	movwf	??___flmul+1
  6383     0687  30FF               	movlw	255
  6384     0688  0537               	andwf	___flmul@grs+2,w
  6385     0689  00B0               	movwf	??___flmul+2
  6386     068A  307F               	movlw	127
  6387     068B  0538               	andwf	___flmul@grs+3,w
  6388     068C  00B1               	movwf	??___flmul+3
  6389     068D  0831               	movf	??___flmul+3,w
  6390     068E  0430               	iorwf	??___flmul+2,w
  6391     068F  042F               	iorwf	??___flmul+1,w
  6392     0690  042E               	iorwf	??___flmul,w
  6393     0691  1903               	skipnz
  6394     0692  2E94               	goto	u4281
  6395     0693  2E95               	goto	u4280
  6396     0694                     u4281:
  6397     0694  2E98               	goto	l798
  6398     0695                     u4280:
  6399     0695                     l3247:
  6400     0695  01B4               	clrf	___flmul@aexp
  6401     0696  0AB4               	incf	___flmul@aexp,f
  6402     0697  2E9D               	goto	l3251
  6403     0698                     l798:
  6404     0698  1C3A               	btfss	___flmul@prod,0
  6405     0699  2E9B               	goto	u4291
  6406     069A  2E9C               	goto	u4290
  6407     069B                     u4291:
  6408     069B  2E9D               	goto	l3251
  6409     069C                     u4290:
  6410     069C  2E95               	goto	l3247
  6411     069D                     l3251:
  6412     069D  0834               	movf	___flmul@aexp,w
  6413     069E  1903               	btfsc	3,2
  6414     069F  2EA1               	goto	u4301
  6415     06A0  2EA2               	goto	u4300
  6416     06A1                     u4301:
  6417     06A1  2ED3               	goto	l3261
  6418     06A2                     u4300:
  6419     06A2                     l3253:
  6420     06A2  3001               	movlw	1
  6421     06A3  07BA               	addwf	___flmul@prod,f
  6422     06A4  3000               	movlw	0
  6423     06A5  1803               	skipnc
  6424     06A6  3001               	movlw	1
  6425     06A7  07BB               	addwf	___flmul@prod+1,f
  6426     06A8  3000               	movlw	0
  6427     06A9  1803               	skipnc
  6428     06AA  3001               	movlw	1
  6429     06AB  07BC               	addwf	___flmul@prod+2,f
  6430     06AC  3000               	movlw	0
  6431     06AD  1803               	skipnc
  6432     06AE  3001               	movlw	1
  6433     06AF  07BD               	addwf	___flmul@prod+3,f
  6434     06B0                     l3255:
  6435     06B0  1C3D               	btfss	___flmul@prod+3,0
  6436     06B1  2EB3               	goto	u4311
  6437     06B2  2EB4               	goto	u4310
  6438     06B3                     u4311:
  6439     06B3  2ED3               	goto	l3261
  6440     06B4                     u4310:
  6441     06B4                     l3257:
  6442     06B4  083A               	movf	___flmul@prod,w
  6443     06B5  00AE               	movwf	??___flmul
  6444     06B6  083B               	movf	___flmul@prod+1,w
  6445     06B7  00AF               	movwf	??___flmul+1
  6446     06B8  083C               	movf	___flmul@prod+2,w
  6447     06B9  00B0               	movwf	??___flmul+2
  6448     06BA  083D               	movf	___flmul@prod+3,w
  6449     06BB  00B1               	movwf	??___flmul+3
  6450     06BC  3001               	movlw	1
  6451     06BD  00B2               	movwf	??___flmul+4
  6452     06BE                     u4325:
  6453     06BE  0D31               	rlf	??___flmul+3,w
  6454     06BF  0CB1               	rrf	??___flmul+3,f
  6455     06C0  0CB0               	rrf	??___flmul+2,f
  6456     06C1  0CAF               	rrf	??___flmul+1,f
  6457     06C2  0CAE               	rrf	??___flmul,f
  6458     06C3                     u4320:
  6459     06C3  0BB2               	decfsz	??___flmul+4,f
  6460     06C4  2EBE               	goto	u4325
  6461     06C5  0831               	movf	??___flmul+3,w
  6462     06C6  00BD               	movwf	___flmul@prod+3
  6463     06C7  0830               	movf	??___flmul+2,w
  6464     06C8  00BC               	movwf	___flmul@prod+2
  6465     06C9  082F               	movf	??___flmul+1,w
  6466     06CA  00BB               	movwf	___flmul@prod+1
  6467     06CB  082E               	movf	??___flmul,w
  6468     06CC  00BA               	movwf	___flmul@prod
  6469     06CD                     l3259:
  6470     06CD  3001               	movlw	1
  6471     06CE  07BE               	addwf	___flmul@temp,f
  6472     06CF  1803               	skipnc
  6473     06D0  0ABF               	incf	___flmul@temp+1,f
  6474     06D1  3000               	movlw	0
  6475     06D2  07BF               	addwf	___flmul@temp+1,f
  6476     06D3                     l3261:
  6477     06D3  083F               	movf	___flmul@temp+1,w
  6478     06D4  3A80               	xorlw	128
  6479     06D5  00FF               	movwf	btemp+1
  6480     06D6  3080               	movlw	128
  6481     06D7  027F               	subwf	btemp+1,w
  6482     06D8  1D03               	skipz
  6483     06D9  2EDC               	goto	u4335
  6484     06DA  30FF               	movlw	255
  6485     06DB  023E               	subwf	___flmul@temp,w
  6486     06DC                     u4335:
  6487     06DC  1C03               	skipc
  6488     06DD  2EDF               	goto	u4331
  6489     06DE  2EE0               	goto	u4330
  6490     06DF                     u4331:
  6491     06DF  2EEB               	goto	l3265
  6492     06E0                     u4330:
  6493     06E0                     l3263:
  6494     06E0  307F               	movlw	127
  6495     06E1  1283               	bcf	3,5	;RP0=0, select bank0
  6496     06E2  1303               	bcf	3,6	;RP1=0, select bank0
  6497     06E3  00BD               	movwf	___flmul@prod+3
  6498     06E4  3080               	movlw	128
  6499     06E5  00BC               	movwf	___flmul@prod+2
  6500     06E6  3000               	movlw	0
  6501     06E7  00BB               	movwf	___flmul@prod+1
  6502     06E8  3000               	movlw	0
  6503     06E9  00BA               	movwf	___flmul@prod
  6504     06EA  2F1C               	goto	l3279
  6505     06EB                     l3265:
  6506     06EB  1283               	bcf	3,5	;RP0=0, select bank0
  6507     06EC  1303               	bcf	3,6	;RP1=0, select bank0
  6508     06ED  083F               	movf	___flmul@temp+1,w
  6509     06EE  3A80               	xorlw	128
  6510     06EF  00FF               	movwf	btemp+1
  6511     06F0  3080               	movlw	128
  6512     06F1  027F               	subwf	btemp+1,w
  6513     06F2  1D03               	skipz
  6514     06F3  2EF6               	goto	u4345
  6515     06F4  3001               	movlw	1
  6516     06F5  023E               	subwf	___flmul@temp,w
  6517     06F6                     u4345:
  6518     06F6  1803               	skipnc
  6519     06F7  2EF9               	goto	u4341
  6520     06F8  2EFA               	goto	u4340
  6521     06F9                     u4341:
  6522     06F9  2F06               	goto	l3271
  6523     06FA                     u4340:
  6524     06FA                     l3267:
  6525     06FA  3000               	movlw	0
  6526     06FB  1283               	bcf	3,5	;RP0=0, select bank0
  6527     06FC  1303               	bcf	3,6	;RP1=0, select bank0
  6528     06FD  00BD               	movwf	___flmul@prod+3
  6529     06FE  3000               	movlw	0
  6530     06FF  00BC               	movwf	___flmul@prod+2
  6531     0700  3000               	movlw	0
  6532     0701  00BB               	movwf	___flmul@prod+1
  6533     0702  3000               	movlw	0
  6534     0703  00BA               	movwf	___flmul@prod
  6535     0704                     l3269:
  6536     0704  01B3               	clrf	___flmul@sign
  6537     0705  2F1C               	goto	l3279
  6538     0706                     l3271:
  6539     0706  1283               	bcf	3,5	;RP0=0, select bank0
  6540     0707  1303               	bcf	3,6	;RP1=0, select bank0
  6541     0708  083E               	movf	___flmul@temp,w
  6542     0709  00B9               	movwf	___flmul@bexp
  6543     070A  30FF               	movlw	255
  6544     070B  05BA               	andwf	___flmul@prod,f
  6545     070C  30FF               	movlw	255
  6546     070D  05BB               	andwf	___flmul@prod+1,f
  6547     070E  307F               	movlw	127
  6548     070F  05BC               	andwf	___flmul@prod+2,f
  6549     0710  3000               	movlw	0
  6550     0711  05BD               	andwf	___flmul@prod+3,f
  6551     0712                     l3273:
  6552     0712  1C39               	btfss	___flmul@bexp,0
  6553     0713  2F15               	goto	u4351
  6554     0714  2F16               	goto	u4350
  6555     0715                     u4351:
  6556     0715  2F17               	goto	l3277
  6557     0716                     u4350:
  6558     0716                     l3275:
  6559     0716  17BC               	bsf	___flmul@prod+2,7
  6560     0717                     l3277:
  6561     0717  0839               	movf	___flmul@bexp,w
  6562     0718  00AE               	movwf	??___flmul
  6563     0719  1003               	clrc
  6564     071A  0C2E               	rrf	??___flmul,w
  6565     071B  00BD               	movwf	___flmul@prod+3
  6566     071C                     l3279:
  6567     071C  0833               	movf	___flmul@sign,w
  6568     071D  00FF               	movwf	btemp+1
  6569     071E  087F               	movf	btemp+1,w
  6570     071F  04BD               	iorwf	___flmul@prod+3,f
  6571     0720                     l3281:
  6572     0720  083D               	movf	___flmul@prod+3,w
  6573     0721  00A9               	movwf	?___flmul+3
  6574     0722  083C               	movf	___flmul@prod+2,w
  6575     0723  00A8               	movwf	?___flmul+2
  6576     0724  083B               	movf	___flmul@prod+1,w
  6577     0725  00A7               	movwf	?___flmul+1
  6578     0726  083A               	movf	___flmul@prod,w
  6579     0727  00A6               	movwf	?___flmul
  6580     0728                     l792:
  6581     0728  0008               	return
  6582     0729                     __end_of___flmul:
  6583                           
  6584                           	psect	text13
  6585     15B2                     __ptext13:	
  6586 ;; *************** function __Umul8_16 *****************
  6587 ;; Defined at:
  6588 ;;		line 4 in file "C:\Program Files\Microchip\xc8\v2.46\pic\sources\c99\common\Umul8_16.c"
  6589 ;; Parameters:    Size  Location     Type
  6590 ;;  multiplier      1    wreg     unsigned char 
  6591 ;;  multiplicand    1    2[COMMON] unsigned char 
  6592 ;; Auto vars:     Size  Location     Type
  6593 ;;  multiplier      1    4[BANK0 ] unsigned char 
  6594 ;;  word_mpld       2    2[BANK0 ] unsigned short 
  6595 ;;  product         2    0[BANK0 ] unsigned short 
  6596 ;; Return value:  Size  Location     Type
  6597 ;;                  2    2[COMMON] unsigned int 
  6598 ;; Registers used:
  6599 ;;		wreg, status,2, status,0
  6600 ;; Tracked objects:
  6601 ;;		On entry : 0/0
  6602 ;;		On exit  : 0/0
  6603 ;;		Unchanged: 0/0
  6604 ;; Data sizes:     COMMON   BANK0   BANK1   BANK3   BANK2
  6605 ;;      Params:         2       0       0       0       0
  6606 ;;      Locals:         0       5       0       0       0
  6607 ;;      Temps:          2       0       0       0       0
  6608 ;;      Totals:         4       5       0       0       0
  6609 ;;Total ram usage:        9 bytes
  6610 ;; Hardware stack levels used: 1
  6611 ;; Hardware stack levels required when called: 1
  6612 ;; This function calls:
  6613 ;;		Nothing
  6614 ;; This function is called by:
  6615 ;;		___flmul
  6616 ;; This function uses a non-reentrant model
  6617 ;;
  6618                           
  6619     15B2                     __Umul8_16:	
  6620                           ;psect for function __Umul8_16
  6621                           
  6622                           
  6623                           ;incstack = 0
  6624                           ; Regs used in __Umul8_16: [wreg+status,2+status,0]
  6625                           ;__Umul8_16@multiplier stored from wreg
  6626     15B2  1283               	bcf	3,5	;RP0=0, select bank0
  6627     15B3  1303               	bcf	3,6	;RP1=0, select bank0
  6628     15B4  00A4               	movwf	__Umul8_16@multiplier
  6629     15B5                     l3095:
  6630     15B5  01A0               	clrf	__Umul8_16@product
  6631     15B6  01A1               	clrf	__Umul8_16@product+1
  6632     15B7                     l3097:
  6633     15B7  0872               	movf	__Umul8_16@multiplicand,w
  6634     15B8  00F4               	movwf	??__Umul8_16
  6635     15B9  01F5               	clrf	??__Umul8_16+1
  6636     15BA  0874               	movf	??__Umul8_16,w
  6637     15BB  00A2               	movwf	__Umul8_16@word_mpld
  6638     15BC  0875               	movf	??__Umul8_16+1,w
  6639     15BD  00A3               	movwf	__Umul8_16@word_mpld+1
  6640     15BE                     l3099:
  6641     15BE  1C24               	btfss	__Umul8_16@multiplier,0
  6642     15BF  2DC1               	goto	u3941
  6643     15C0  2DC2               	goto	u3940
  6644     15C1                     u3941:
  6645     15C1  2DC8               	goto	l811
  6646     15C2                     u3940:
  6647     15C2                     l3101:
  6648     15C2  0822               	movf	__Umul8_16@word_mpld,w
  6649     15C3  07A0               	addwf	__Umul8_16@product,f
  6650     15C4  1803               	skipnc
  6651     15C5  0AA1               	incf	__Umul8_16@product+1,f
  6652     15C6  0823               	movf	__Umul8_16@word_mpld+1,w
  6653     15C7  07A1               	addwf	__Umul8_16@product+1,f
  6654     15C8                     l811:
  6655     15C8  3001               	movlw	1
  6656     15C9                     u3955:
  6657     15C9  1003               	clrc
  6658     15CA  0DA2               	rlf	__Umul8_16@word_mpld,f
  6659     15CB  0DA3               	rlf	__Umul8_16@word_mpld+1,f
  6660     15CC  3EFF               	addlw	-1
  6661     15CD  1D03               	skipz
  6662     15CE  2DC9               	goto	u3955
  6663     15CF  1003               	clrc
  6664     15D0  0CA4               	rrf	__Umul8_16@multiplier,f
  6665     15D1                     l3103:
  6666     15D1  0824               	movf	__Umul8_16@multiplier,w
  6667     15D2  1D03               	btfss	3,2
  6668     15D3  2DD5               	goto	u3961
  6669     15D4  2DD6               	goto	u3960
  6670     15D5                     u3961:
  6671     15D5  2DBE               	goto	l3099
  6672     15D6                     u3960:
  6673     15D6                     l3105:
  6674     15D6  0821               	movf	__Umul8_16@product+1,w
  6675     15D7  00F3               	movwf	?__Umul8_16+1
  6676     15D8  0820               	movf	__Umul8_16@product,w
  6677     15D9  00F2               	movwf	?__Umul8_16
  6678     15DA                     l813:
  6679     15DA  0008               	return
  6680     15DB                     __end_of__Umul8_16:
  6681                           
  6682                           	psect	text14
  6683     090E                     __ptext14:	
  6684 ;; *************** function ___flge *****************
  6685 ;; Defined at:
  6686 ;;		line 4 in file "C:\Program Files\Microchip\xc8\v2.46\pic\sources\c99\common\flge.c"
  6687 ;; Parameters:    Size  Location     Type
  6688 ;;  ff1             4   40[BANK0 ] unsigned int 
  6689 ;;  ff2             4   44[BANK0 ] unsigned int 
  6690 ;; Auto vars:     Size  Location     Type
  6691 ;;		None
  6692 ;; Return value:  Size  Location     Type
  6693 ;;		None               void
  6694 ;; Registers used:
  6695 ;;		wreg, status,2, status,0
  6696 ;; Tracked objects:
  6697 ;;		On entry : 0/0
  6698 ;;		On exit  : 0/0
  6699 ;;		Unchanged: 0/0
  6700 ;; Data sizes:     COMMON   BANK0   BANK1   BANK3   BANK2
  6701 ;;      Params:         0       8       0       0       0
  6702 ;;      Locals:         0       0       0       0       0
  6703 ;;      Temps:          0       4       0       0       0
  6704 ;;      Totals:         0      12       0       0       0
  6705 ;;Total ram usage:       12 bytes
  6706 ;; Hardware stack levels used: 1
  6707 ;; Hardware stack levels required when called: 1
  6708 ;; This function calls:
  6709 ;;		Nothing
  6710 ;; This function is called by:
  6711 ;;		_run_program
  6712 ;; This function uses a non-reentrant model
  6713 ;;
  6714                           
  6715     090E                     ___flge:	
  6716                           ;psect for function ___flge
  6717                           
  6718     090E                     l2347:	
  6719                           ;incstack = 0
  6720                           ; Regs used in ___flge: [wreg+status,2+status,0]
  6721                           
  6722     090E  3000               	movlw	0
  6723     090F  1283               	bcf	3,5	;RP0=0, select bank0
  6724     0910  1303               	bcf	3,6	;RP1=0, select bank0
  6725     0911  0548               	andwf	___flge@ff1,w
  6726     0912  00D0               	movwf	??___flge
  6727     0913  3000               	movlw	0
  6728     0914  0549               	andwf	___flge@ff1+1,w
  6729     0915  00D1               	movwf	??___flge+1
  6730     0916  3080               	movlw	128
  6731     0917  054A               	andwf	___flge@ff1+2,w
  6732     0918  00D2               	movwf	??___flge+2
  6733     0919  307F               	movlw	127
  6734     091A  054B               	andwf	___flge@ff1+3,w
  6735     091B  00D3               	movwf	??___flge+3
  6736     091C  0853               	movf	??___flge+3,w
  6737     091D  0452               	iorwf	??___flge+2,w
  6738     091E  0451               	iorwf	??___flge+1,w
  6739     091F  0450               	iorwf	??___flge,w
  6740     0920  1D03               	skipz
  6741     0921  2923               	goto	u2731
  6742     0922  2924               	goto	u2730
  6743     0923                     u2731:
  6744     0923  292C               	goto	l573
  6745     0924                     u2730:
  6746     0924                     l2349:
  6747     0924  3000               	movlw	0
  6748     0925  00CB               	movwf	___flge@ff1+3
  6749     0926  3000               	movlw	0
  6750     0927  00CA               	movwf	___flge@ff1+2
  6751     0928  3000               	movlw	0
  6752     0929  00C9               	movwf	___flge@ff1+1
  6753     092A  3000               	movlw	0
  6754     092B  00C8               	movwf	___flge@ff1
  6755     092C                     l573:
  6756     092C  3000               	movlw	0
  6757     092D  054C               	andwf	___flge@ff2,w
  6758     092E  00D0               	movwf	??___flge
  6759     092F  3000               	movlw	0
  6760     0930  054D               	andwf	___flge@ff2+1,w
  6761     0931  00D1               	movwf	??___flge+1
  6762     0932  3080               	movlw	128
  6763     0933  054E               	andwf	___flge@ff2+2,w
  6764     0934  00D2               	movwf	??___flge+2
  6765     0935  307F               	movlw	127
  6766     0936  054F               	andwf	___flge@ff2+3,w
  6767     0937  00D3               	movwf	??___flge+3
  6768     0938  0853               	movf	??___flge+3,w
  6769     0939  0452               	iorwf	??___flge+2,w
  6770     093A  0451               	iorwf	??___flge+1,w
  6771     093B  0450               	iorwf	??___flge,w
  6772     093C  1D03               	skipz
  6773     093D  293F               	goto	u2741
  6774     093E  2940               	goto	u2740
  6775     093F                     u2741:
  6776     093F  2948               	goto	l2353
  6777     0940                     u2740:
  6778     0940                     l2351:
  6779     0940  3000               	movlw	0
  6780     0941  00CF               	movwf	___flge@ff2+3
  6781     0942  3000               	movlw	0
  6782     0943  00CE               	movwf	___flge@ff2+2
  6783     0944  3000               	movlw	0
  6784     0945  00CD               	movwf	___flge@ff2+1
  6785     0946  3000               	movlw	0
  6786     0947  00CC               	movwf	___flge@ff2
  6787     0948                     l2353:
  6788     0948  1FCB               	btfss	___flge@ff1+3,7
  6789     0949  294B               	goto	u2751
  6790     094A  294C               	goto	u2750
  6791     094B                     u2751:
  6792     094B  2970               	goto	l2357
  6793     094C                     u2750:
  6794     094C                     l2355:
  6795     094C  3000               	movlw	0
  6796     094D  00D0               	movwf	??___flge
  6797     094E  3000               	movlw	0
  6798     094F  00D1               	movwf	??___flge+1
  6799     0950  3000               	movlw	0
  6800     0951  00D2               	movwf	??___flge+2
  6801     0952  3080               	movlw	128
  6802     0953  00D3               	movwf	??___flge+3
  6803     0954  0848               	movf	___flge@ff1,w
  6804     0955  02D0               	subwf	??___flge,f
  6805     0956  0849               	movf	___flge@ff1+1,w
  6806     0957  1C03               	skipc
  6807     0958  0F49               	incfsz	___flge@ff1+1,w
  6808     0959  295B               	goto	u2761
  6809     095A  295C               	goto	u2762
  6810     095B                     u2761:
  6811     095B  02D1               	subwf	??___flge+1,f
  6812     095C                     u2762:
  6813     095C  084A               	movf	___flge@ff1+2,w
  6814     095D  1C03               	skipc
  6815     095E  0F4A               	incfsz	___flge@ff1+2,w
  6816     095F  2961               	goto	u2763
  6817     0960  2962               	goto	u2764
  6818     0961                     u2763:
  6819     0961  02D2               	subwf	??___flge+2,f
  6820     0962                     u2764:
  6821     0962  084B               	movf	___flge@ff1+3,w
  6822     0963  1C03               	skipc
  6823     0964  0F4B               	incfsz	___flge@ff1+3,w
  6824     0965  2967               	goto	u2765
  6825     0966  2968               	goto	u2766
  6826     0967                     u2765:
  6827     0967  02D3               	subwf	??___flge+3,f
  6828     0968                     u2766:
  6829     0968  0853               	movf	??___flge+3,w
  6830     0969  00CB               	movwf	___flge@ff1+3
  6831     096A  0852               	movf	??___flge+2,w
  6832     096B  00CA               	movwf	___flge@ff1+2
  6833     096C  0851               	movf	??___flge+1,w
  6834     096D  00C9               	movwf	___flge@ff1+1
  6835     096E  0850               	movf	??___flge,w
  6836     096F  00C8               	movwf	___flge@ff1
  6837     0970                     l2357:
  6838     0970  1FCF               	btfss	___flge@ff2+3,7
  6839     0971  2973               	goto	u2771
  6840     0972  2974               	goto	u2770
  6841     0973                     u2771:
  6842     0973  2998               	goto	l576
  6843     0974                     u2770:
  6844     0974                     l2359:
  6845     0974  3000               	movlw	0
  6846     0975  00D0               	movwf	??___flge
  6847     0976  3000               	movlw	0
  6848     0977  00D1               	movwf	??___flge+1
  6849     0978  3000               	movlw	0
  6850     0979  00D2               	movwf	??___flge+2
  6851     097A  3080               	movlw	128
  6852     097B  00D3               	movwf	??___flge+3
  6853     097C  084C               	movf	___flge@ff2,w
  6854     097D  02D0               	subwf	??___flge,f
  6855     097E  084D               	movf	___flge@ff2+1,w
  6856     097F  1C03               	skipc
  6857     0980  0F4D               	incfsz	___flge@ff2+1,w
  6858     0981  2983               	goto	u2781
  6859     0982  2984               	goto	u2782
  6860     0983                     u2781:
  6861     0983  02D1               	subwf	??___flge+1,f
  6862     0984                     u2782:
  6863     0984  084E               	movf	___flge@ff2+2,w
  6864     0985  1C03               	skipc
  6865     0986  0F4E               	incfsz	___flge@ff2+2,w
  6866     0987  2989               	goto	u2783
  6867     0988  298A               	goto	u2784
  6868     0989                     u2783:
  6869     0989  02D2               	subwf	??___flge+2,f
  6870     098A                     u2784:
  6871     098A  084F               	movf	___flge@ff2+3,w
  6872     098B  1C03               	skipc
  6873     098C  0F4F               	incfsz	___flge@ff2+3,w
  6874     098D  298F               	goto	u2785
  6875     098E  2990               	goto	u2786
  6876     098F                     u2785:
  6877     098F  02D3               	subwf	??___flge+3,f
  6878     0990                     u2786:
  6879     0990  0853               	movf	??___flge+3,w
  6880     0991  00CF               	movwf	___flge@ff2+3
  6881     0992  0852               	movf	??___flge+2,w
  6882     0993  00CE               	movwf	___flge@ff2+2
  6883     0994  0851               	movf	??___flge+1,w
  6884     0995  00CD               	movwf	___flge@ff2+1
  6885     0996  0850               	movf	??___flge,w
  6886     0997  00CC               	movwf	___flge@ff2
  6887     0998                     l576:
  6888     0998  3080               	movlw	128
  6889     0999  06CB               	xorwf	___flge@ff1+3,f
  6890     099A  3080               	movlw	128
  6891     099B  06CF               	xorwf	___flge@ff2+3,f
  6892     099C  084F               	movf	___flge@ff2+3,w
  6893     099D  024B               	subwf	___flge@ff1+3,w
  6894     099E  1D03               	skipz
  6895     099F  29AA               	goto	u2795
  6896     09A0  084E               	movf	___flge@ff2+2,w
  6897     09A1  024A               	subwf	___flge@ff1+2,w
  6898     09A2  1D03               	skipz
  6899     09A3  29AA               	goto	u2795
  6900     09A4  084D               	movf	___flge@ff2+1,w
  6901     09A5  0249               	subwf	___flge@ff1+1,w
  6902     09A6  1D03               	skipz
  6903     09A7  29AA               	goto	u2795
  6904     09A8  084C               	movf	___flge@ff2,w
  6905     09A9  0248               	subwf	___flge@ff1,w
  6906     09AA                     u2795:
  6907     09AA  1803               	skipnc
  6908     09AB  29AD               	goto	u2791
  6909     09AC  29AE               	goto	u2790
  6910     09AD                     u2791:
  6911     09AD  29B0               	goto	l2363
  6912     09AE                     u2790:
  6913     09AE                     l2361:
  6914     09AE  1003               	clrc
  6915     09AF  29B1               	goto	l581
  6916     09B0                     l2363:
  6917     09B0  1403               	setc
  6918     09B1                     l581:
  6919     09B1  0008               	return
  6920     09B2                     __end_of___flge:
  6921                           
  6922                           	psect	text15
  6923     16E1                     __ptext15:	
  6924 ;; *************** function ___awmod *****************
  6925 ;; Defined at:
  6926 ;;		line 5 in file "C:\Program Files\Microchip\xc8\v2.46\pic\sources\c99\common\awmod.c"
  6927 ;; Parameters:    Size  Location     Type
  6928 ;;  divisor         2    2[COMMON] int 
  6929 ;;  dividend        2    4[COMMON] int 
  6930 ;; Auto vars:     Size  Location     Type
  6931 ;;  sign            1    7[COMMON] unsigned char 
  6932 ;;  counter         1    6[COMMON] unsigned char 
  6933 ;; Return value:  Size  Location     Type
  6934 ;;                  2    2[COMMON] int 
  6935 ;; Registers used:
  6936 ;;		wreg, status,2, status,0, btemp+1
  6937 ;; Tracked objects:
  6938 ;;		On entry : 0/0
  6939 ;;		On exit  : 0/0
  6940 ;;		Unchanged: 0/0
  6941 ;; Data sizes:     COMMON   BANK0   BANK1   BANK3   BANK2
  6942 ;;      Params:         4       0       0       0       0
  6943 ;;      Locals:         2       0       0       0       0
  6944 ;;      Temps:          0       0       0       0       0
  6945 ;;      Totals:         6       0       0       0       0
  6946 ;;Total ram usage:        6 bytes
  6947 ;; Hardware stack levels used: 1
  6948 ;; Hardware stack levels required when called: 1
  6949 ;; This function calls:
  6950 ;;		Nothing
  6951 ;; This function is called by:
  6952 ;;		_run_program
  6953 ;; This function uses a non-reentrant model
  6954 ;;
  6955                           
  6956     16E1                     ___awmod:	
  6957                           ;psect for function ___awmod
  6958                           
  6959     16E1                     l2309:	
  6960                           ;incstack = 0
  6961                           ; Regs used in ___awmod: [wreg+status,2+status,0+btemp+1]
  6962                           
  6963     16E1  01F7               	clrf	___awmod@sign
  6964     16E2                     l2311:
  6965     16E2  1FF5               	btfss	___awmod@dividend+1,7
  6966     16E3  2EE5               	goto	u2641
  6967     16E4  2EE6               	goto	u2640
  6968     16E5                     u2641:
  6969     16E5  2EED               	goto	l2317
  6970     16E6                     u2640:
  6971     16E6                     l2313:
  6972     16E6  09F4               	comf	___awmod@dividend,f
  6973     16E7  09F5               	comf	___awmod@dividend+1,f
  6974     16E8  0AF4               	incf	___awmod@dividend,f
  6975     16E9  1903               	skipnz
  6976     16EA  0AF5               	incf	___awmod@dividend+1,f
  6977     16EB                     l2315:
  6978     16EB  01F7               	clrf	___awmod@sign
  6979     16EC  0AF7               	incf	___awmod@sign,f
  6980     16ED                     l2317:
  6981     16ED  1FF3               	btfss	___awmod@divisor+1,7
  6982     16EE  2EF0               	goto	u2651
  6983     16EF  2EF1               	goto	u2650
  6984     16F0                     u2651:
  6985     16F0  2EF6               	goto	l2321
  6986     16F1                     u2650:
  6987     16F1                     l2319:
  6988     16F1  09F2               	comf	___awmod@divisor,f
  6989     16F2  09F3               	comf	___awmod@divisor+1,f
  6990     16F3  0AF2               	incf	___awmod@divisor,f
  6991     16F4  1903               	skipnz
  6992     16F5  0AF3               	incf	___awmod@divisor+1,f
  6993     16F6                     l2321:
  6994     16F6  0872               	movf	___awmod@divisor,w
  6995     16F7  0473               	iorwf	___awmod@divisor+1,w
  6996     16F8  1903               	btfsc	3,2
  6997     16F9  2EFB               	goto	u2661
  6998     16FA  2EFC               	goto	u2660
  6999     16FB                     u2661:
  7000     16FB  2F2B               	goto	l2339
  7001     16FC                     u2660:
  7002     16FC                     l2323:
  7003     16FC  01F6               	clrf	___awmod@counter
  7004     16FD  0AF6               	incf	___awmod@counter,f
  7005     16FE  2F0A               	goto	l2329
  7006     16FF                     l2325:
  7007     16FF  3001               	movlw	1
  7008     1700                     u2675:
  7009     1700  1003               	clrc
  7010     1701  0DF2               	rlf	___awmod@divisor,f
  7011     1702  0DF3               	rlf	___awmod@divisor+1,f
  7012     1703  3EFF               	addlw	-1
  7013     1704  1D03               	skipz
  7014     1705  2F00               	goto	u2675
  7015     1706                     l2327:
  7016     1706  3001               	movlw	1
  7017     1707  00FF               	movwf	btemp+1
  7018     1708  087F               	movf	btemp+1,w
  7019     1709  07F6               	addwf	___awmod@counter,f
  7020     170A                     l2329:
  7021     170A  1FF3               	btfss	___awmod@divisor+1,7
  7022     170B  2F0D               	goto	u2681
  7023     170C  2F0E               	goto	u2680
  7024     170D                     u2681:
  7025     170D  2EFF               	goto	l2325
  7026     170E                     u2680:
  7027     170E                     l2331:
  7028     170E  0873               	movf	___awmod@divisor+1,w
  7029     170F  0275               	subwf	___awmod@dividend+1,w
  7030     1710  1D03               	skipz
  7031     1711  2F14               	goto	u2695
  7032     1712  0872               	movf	___awmod@divisor,w
  7033     1713  0274               	subwf	___awmod@dividend,w
  7034     1714                     u2695:
  7035     1714  1C03               	skipc
  7036     1715  2F17               	goto	u2691
  7037     1716  2F18               	goto	u2690
  7038     1717                     u2691:
  7039     1717  2F1E               	goto	l2335
  7040     1718                     u2690:
  7041     1718                     l2333:
  7042     1718  0872               	movf	___awmod@divisor,w
  7043     1719  02F4               	subwf	___awmod@dividend,f
  7044     171A  0873               	movf	___awmod@divisor+1,w
  7045     171B  1C03               	skipc
  7046     171C  03F5               	decf	___awmod@dividend+1,f
  7047     171D  02F5               	subwf	___awmod@dividend+1,f
  7048     171E                     l2335:
  7049     171E  3001               	movlw	1
  7050     171F                     u2705:
  7051     171F  1003               	clrc
  7052     1720  0CF3               	rrf	___awmod@divisor+1,f
  7053     1721  0CF2               	rrf	___awmod@divisor,f
  7054     1722  3EFF               	addlw	-1
  7055     1723  1D03               	skipz
  7056     1724  2F1F               	goto	u2705
  7057     1725                     l2337:
  7058     1725  3001               	movlw	1
  7059     1726  02F6               	subwf	___awmod@counter,f
  7060     1727  1D03               	btfss	3,2
  7061     1728  2F2A               	goto	u2711
  7062     1729  2F2B               	goto	u2710
  7063     172A                     u2711:
  7064     172A  2F0E               	goto	l2331
  7065     172B                     u2710:
  7066     172B                     l2339:
  7067     172B  0877               	movf	___awmod@sign,w
  7068     172C  1903               	btfsc	3,2
  7069     172D  2F2F               	goto	u2721
  7070     172E  2F30               	goto	u2720
  7071     172F                     u2721:
  7072     172F  2F35               	goto	l2343
  7073     1730                     u2720:
  7074     1730                     l2341:
  7075     1730  09F4               	comf	___awmod@dividend,f
  7076     1731  09F5               	comf	___awmod@dividend+1,f
  7077     1732  0AF4               	incf	___awmod@dividend,f
  7078     1733  1903               	skipnz
  7079     1734  0AF5               	incf	___awmod@dividend+1,f
  7080     1735                     l2343:
  7081     1735  0875               	movf	___awmod@dividend+1,w
  7082     1736  00F3               	movwf	?___awmod+1
  7083     1737  0874               	movf	___awmod@dividend,w
  7084     1738  00F2               	movwf	?___awmod
  7085     1739                     l561:
  7086     1739  0008               	return
  7087     173A                     __end_of___awmod:
  7088                           
  7089                           	psect	text16
  7090     1799                     __ptext16:	
  7091 ;; *************** function ___awdiv *****************
  7092 ;; Defined at:
  7093 ;;		line 5 in file "C:\Program Files\Microchip\xc8\v2.46\pic\sources\c99\common\awdiv.c"
  7094 ;; Parameters:    Size  Location     Type
  7095 ;;  divisor         2    2[COMMON] int 
  7096 ;;  dividend        2    4[COMMON] int 
  7097 ;; Auto vars:     Size  Location     Type
  7098 ;;  quotient        2    8[COMMON] int 
  7099 ;;  sign            1    7[COMMON] unsigned char 
  7100 ;;  counter         1    6[COMMON] unsigned char 
  7101 ;; Return value:  Size  Location     Type
  7102 ;;                  2    2[COMMON] int 
  7103 ;; Registers used:
  7104 ;;		wreg, status,2, status,0, btemp+1
  7105 ;; Tracked objects:
  7106 ;;		On entry : 0/0
  7107 ;;		On exit  : 0/0
  7108 ;;		Unchanged: 0/0
  7109 ;; Data sizes:     COMMON   BANK0   BANK1   BANK3   BANK2
  7110 ;;      Params:         4       0       0       0       0
  7111 ;;      Locals:         4       0       0       0       0
  7112 ;;      Temps:          0       0       0       0       0
  7113 ;;      Totals:         8       0       0       0       0
  7114 ;;Total ram usage:        8 bytes
  7115 ;; Hardware stack levels used: 1
  7116 ;; Hardware stack levels required when called: 1
  7117 ;; This function calls:
  7118 ;;		Nothing
  7119 ;; This function is called by:
  7120 ;;		_run_program
  7121 ;; This function uses a non-reentrant model
  7122 ;;
  7123                           
  7124     1799                     ___awdiv:	
  7125                           ;psect for function ___awdiv
  7126                           
  7127     1799                     l2265:	
  7128                           ;incstack = 0
  7129                           ; Regs used in ___awdiv: [wreg+status,2+status,0+btemp+1]
  7130                           
  7131     1799  01F7               	clrf	___awdiv@sign
  7132     179A                     l2267:
  7133     179A  1FF3               	btfss	___awdiv@divisor+1,7
  7134     179B  2F9D               	goto	u2541
  7135     179C  2F9E               	goto	u2540
  7136     179D                     u2541:
  7137     179D  2FA5               	goto	l2273
  7138     179E                     u2540:
  7139     179E                     l2269:
  7140     179E  09F2               	comf	___awdiv@divisor,f
  7141     179F  09F3               	comf	___awdiv@divisor+1,f
  7142     17A0  0AF2               	incf	___awdiv@divisor,f
  7143     17A1  1903               	skipnz
  7144     17A2  0AF3               	incf	___awdiv@divisor+1,f
  7145     17A3                     l2271:
  7146     17A3  01F7               	clrf	___awdiv@sign
  7147     17A4  0AF7               	incf	___awdiv@sign,f
  7148     17A5                     l2273:
  7149     17A5  1FF5               	btfss	___awdiv@dividend+1,7
  7150     17A6  2FA8               	goto	u2551
  7151     17A7  2FA9               	goto	u2550
  7152     17A8                     u2551:
  7153     17A8  2FB2               	goto	l2279
  7154     17A9                     u2550:
  7155     17A9                     l2275:
  7156     17A9  09F4               	comf	___awdiv@dividend,f
  7157     17AA  09F5               	comf	___awdiv@dividend+1,f
  7158     17AB  0AF4               	incf	___awdiv@dividend,f
  7159     17AC  1903               	skipnz
  7160     17AD  0AF5               	incf	___awdiv@dividend+1,f
  7161     17AE                     l2277:
  7162     17AE  3001               	movlw	1
  7163     17AF  00FF               	movwf	btemp+1
  7164     17B0  087F               	movf	btemp+1,w
  7165     17B1  06F7               	xorwf	___awdiv@sign,f
  7166     17B2                     l2279:
  7167     17B2  01F8               	clrf	___awdiv@quotient
  7168     17B3  01F9               	clrf	___awdiv@quotient+1
  7169     17B4                     l2281:
  7170     17B4  0872               	movf	___awdiv@divisor,w
  7171     17B5  0473               	iorwf	___awdiv@divisor+1,w
  7172     17B6  1903               	btfsc	3,2
  7173     17B7  2FB9               	goto	u2561
  7174     17B8  2FBA               	goto	u2560
  7175     17B9                     u2561:
  7176     17B9  2FF1               	goto	l2301
  7177     17BA                     u2560:
  7178     17BA                     l2283:
  7179     17BA  01F6               	clrf	___awdiv@counter
  7180     17BB  0AF6               	incf	___awdiv@counter,f
  7181     17BC  2FC8               	goto	l2289
  7182     17BD                     l2285:
  7183     17BD  3001               	movlw	1
  7184     17BE                     u2575:
  7185     17BE  1003               	clrc
  7186     17BF  0DF2               	rlf	___awdiv@divisor,f
  7187     17C0  0DF3               	rlf	___awdiv@divisor+1,f
  7188     17C1  3EFF               	addlw	-1
  7189     17C2  1D03               	skipz
  7190     17C3  2FBE               	goto	u2575
  7191     17C4                     l2287:
  7192     17C4  3001               	movlw	1
  7193     17C5  00FF               	movwf	btemp+1
  7194     17C6  087F               	movf	btemp+1,w
  7195     17C7  07F6               	addwf	___awdiv@counter,f
  7196     17C8                     l2289:
  7197     17C8  1FF3               	btfss	___awdiv@divisor+1,7
  7198     17C9  2FCB               	goto	u2581
  7199     17CA  2FCC               	goto	u2580
  7200     17CB                     u2581:
  7201     17CB  2FBD               	goto	l2285
  7202     17CC                     u2580:
  7203     17CC                     l2291:
  7204     17CC  3001               	movlw	1
  7205     17CD                     u2595:
  7206     17CD  1003               	clrc
  7207     17CE  0DF8               	rlf	___awdiv@quotient,f
  7208     17CF  0DF9               	rlf	___awdiv@quotient+1,f
  7209     17D0  3EFF               	addlw	-1
  7210     17D1  1D03               	skipz
  7211     17D2  2FCD               	goto	u2595
  7212     17D3  0873               	movf	___awdiv@divisor+1,w
  7213     17D4  0275               	subwf	___awdiv@dividend+1,w
  7214     17D5  1D03               	skipz
  7215     17D6  2FD9               	goto	u2605
  7216     17D7  0872               	movf	___awdiv@divisor,w
  7217     17D8  0274               	subwf	___awdiv@dividend,w
  7218     17D9                     u2605:
  7219     17D9  1C03               	skipc
  7220     17DA  2FDC               	goto	u2601
  7221     17DB  2FDD               	goto	u2600
  7222     17DC                     u2601:
  7223     17DC  2FE4               	goto	l2297
  7224     17DD                     u2600:
  7225     17DD                     l2293:
  7226     17DD  0872               	movf	___awdiv@divisor,w
  7227     17DE  02F4               	subwf	___awdiv@dividend,f
  7228     17DF  0873               	movf	___awdiv@divisor+1,w
  7229     17E0  1C03               	skipc
  7230     17E1  03F5               	decf	___awdiv@dividend+1,f
  7231     17E2  02F5               	subwf	___awdiv@dividend+1,f
  7232     17E3                     l2295:
  7233     17E3  1478               	bsf	___awdiv@quotient,0
  7234     17E4                     l2297:
  7235     17E4  3001               	movlw	1
  7236     17E5                     u2615:
  7237     17E5  1003               	clrc
  7238     17E6  0CF3               	rrf	___awdiv@divisor+1,f
  7239     17E7  0CF2               	rrf	___awdiv@divisor,f
  7240     17E8  3EFF               	addlw	-1
  7241     17E9  1D03               	skipz
  7242     17EA  2FE5               	goto	u2615
  7243     17EB                     l2299:
  7244     17EB  3001               	movlw	1
  7245     17EC  02F6               	subwf	___awdiv@counter,f
  7246     17ED  1D03               	btfss	3,2
  7247     17EE  2FF0               	goto	u2621
  7248     17EF  2FF1               	goto	u2620
  7249     17F0                     u2621:
  7250     17F0  2FCC               	goto	l2291
  7251     17F1                     u2620:
  7252     17F1                     l2301:
  7253     17F1  0877               	movf	___awdiv@sign,w
  7254     17F2  1903               	btfsc	3,2
  7255     17F3  2FF5               	goto	u2631
  7256     17F4  2FF6               	goto	u2630
  7257     17F5                     u2631:
  7258     17F5  2FFB               	goto	l2305
  7259     17F6                     u2630:
  7260     17F6                     l2303:
  7261     17F6  09F8               	comf	___awdiv@quotient,f
  7262     17F7  09F9               	comf	___awdiv@quotient+1,f
  7263     17F8  0AF8               	incf	___awdiv@quotient,f
  7264     17F9  1903               	skipnz
  7265     17FA  0AF9               	incf	___awdiv@quotient+1,f
  7266     17FB                     l2305:
  7267     17FB  0879               	movf	___awdiv@quotient+1,w
  7268     17FC  00F3               	movwf	?___awdiv+1
  7269     17FD  0878               	movf	___awdiv@quotient,w
  7270     17FE  00F2               	movwf	?___awdiv
  7271     17FF                     l548:
  7272     17FF  0008               	return
  7273     1800                     __end_of___awdiv:
  7274                           
  7275                           	psect	text17
  7276     173A                     __ptext17:	
  7277 ;; *************** function _read_digital_keypad *****************
  7278 ;; Defined at:
  7279 ;;		line 11 in file "digital_keypad.c"
  7280 ;; Parameters:    Size  Location     Type
  7281 ;;  mode            1    wreg     unsigned char 
  7282 ;; Auto vars:     Size  Location     Type
  7283 ;;  mode            1    3[COMMON] unsigned char 
  7284 ;; Return value:  Size  Location     Type
  7285 ;;                  1    wreg      unsigned char 
  7286 ;; Registers used:
  7287 ;;		wreg, status,2, status,0, btemp+1
  7288 ;; Tracked objects:
  7289 ;;		On entry : 0/0
  7290 ;;		On exit  : 0/0
  7291 ;;		Unchanged: 0/0
  7292 ;; Data sizes:     COMMON   BANK0   BANK1   BANK3   BANK2
  7293 ;;      Params:         0       0       0       0       0
  7294 ;;      Locals:         1       0       0       0       0
  7295 ;;      Temps:          1       0       0       0       0
  7296 ;;      Totals:         2       0       0       0       0
  7297 ;;Total ram usage:        2 bytes
  7298 ;; Hardware stack levels used: 1
  7299 ;; Hardware stack levels required when called: 1
  7300 ;; This function calls:
  7301 ;;		Nothing
  7302 ;; This function is called by:
  7303 ;;		_main
  7304 ;; This function uses a non-reentrant model
  7305 ;;
  7306                           
  7307     173A                     _read_digital_keypad:	
  7308                           ;psect for function _read_digital_keypad
  7309                           
  7310                           
  7311                           ;incstack = 0
  7312                           ; Regs used in _read_digital_keypad: [wreg+status,2+status,0+btemp+1]
  7313                           ;read_digital_keypad@mode stored from wreg
  7314     173A  00F3               	movwf	read_digital_keypad@mode
  7315     173B                     l2611:
  7316                           
  7317                           ;digital_keypad.c: 11: unsigned char read_digital_keypad(unsigned char mode);digital_key
      +                          pad.c: 12: {;digital_keypad.c: 13:     static unsigned char once = 1;;digital_keypad.c: 
      +                          14:      static unsigned char pre_key;;digital_keypad.c: 15:      static unsigned char l
      +                          ongpress;;digital_keypad.c: 17:     if (mode == 0)
  7318     173B  0873               	movf	read_digital_keypad@mode,w
  7319     173C  1D03               	btfss	3,2
  7320     173D  2F3F               	goto	u3411
  7321     173E  2F40               	goto	u3410
  7322     173F                     u3411:
  7323     173F  2F45               	goto	l2619
  7324     1740                     u3410:
  7325     1740                     l2613:
  7326                           
  7327                           ;digital_keypad.c: 18:     {;digital_keypad.c: 19:         return PORTB & 0x3F;
  7328     1740  1283               	bcf	3,5	;RP0=0, select bank0
  7329     1741  1303               	bcf	3,6	;RP1=0, select bank0
  7330     1742  0806               	movf	6,w	;volatile
  7331     1743  393F               	andlw	63
  7332     1744  2F98               	goto	l237
  7333     1745                     l2619:
  7334                           
  7335                           ;digital_keypad.c: 22:     {;digital_keypad.c: 23:         if (((PORTB & 0x3F) != 0x3F) 
      +                          && once)
  7336     1745  303F               	movlw	63
  7337     1746  1283               	bcf	3,5	;RP0=0, select bank0
  7338     1747  1303               	bcf	3,6	;RP1=0, select bank0
  7339     1748  0506               	andwf	6,w	;volatile
  7340     1749  00F2               	movwf	??_read_digital_keypad
  7341     174A  303F               	movlw	63
  7342     174B  0672               	xorwf	??_read_digital_keypad,w
  7343     174C  1903               	btfsc	3,2
  7344     174D  2F4F               	goto	u3421
  7345     174E  2F50               	goto	u3420
  7346     174F                     u3421:
  7347     174F  2F5B               	goto	l2627
  7348     1750                     u3420:
  7349     1750                     l2621:
  7350     1750  086F               	movf	read_digital_keypad@once,w
  7351     1751  1903               	btfsc	3,2
  7352     1752  2F54               	goto	u3431
  7353     1753  2F55               	goto	u3430
  7354     1754                     u3431:
  7355     1754  2F5B               	goto	l2627
  7356     1755                     u3430:
  7357     1755                     l2623:
  7358                           
  7359                           ;digital_keypad.c: 24:         {;digital_keypad.c: 25:             once = 0;
  7360     1755  01EF               	clrf	read_digital_keypad@once
  7361                           
  7362                           ;digital_keypad.c: 26:             longpress=0;
  7363     1756  01E9               	clrf	read_digital_keypad@longpress
  7364     1757                     l2625:
  7365                           
  7366                           ;digital_keypad.c: 27:             pre_key= PORTB & 0x3F;
  7367     1757  0806               	movf	6,w	;volatile
  7368     1758  393F               	andlw	63
  7369     1759  00EA               	movwf	read_digital_keypad@pre_key
  7370                           
  7371                           ;digital_keypad.c: 28:         }
  7372     175A  2F97               	goto	l2657
  7373     175B                     l2627:
  7374     175B  086F               	movf	read_digital_keypad@once,w
  7375     175C  1D03               	btfss	3,2
  7376     175D  2F5F               	goto	u3441
  7377     175E  2F60               	goto	u3440
  7378     175F                     u3441:
  7379     175F  2F72               	goto	l2635
  7380     1760                     u3440:
  7381     1760                     l2629:
  7382     1760  0806               	movf	6,w	;volatile
  7383     1761  393F               	andlw	63
  7384     1762  066A               	xorwf	read_digital_keypad@pre_key,w
  7385     1763  1D03               	skipz
  7386     1764  2F66               	goto	u3451
  7387     1765  2F67               	goto	u3450
  7388     1766                     u3451:
  7389     1766  2F72               	goto	l2635
  7390     1767                     u3450:
  7391     1767                     l2631:
  7392     1767  301E               	movlw	30
  7393     1768  0269               	subwf	read_digital_keypad@longpress,w
  7394     1769  1803               	skipnc
  7395     176A  2F6C               	goto	u3461
  7396     176B  2F6D               	goto	u3460
  7397     176C                     u3461:
  7398     176C  2F72               	goto	l2635
  7399     176D                     u3460:
  7400     176D                     l2633:
  7401                           
  7402                           ;digital_keypad.c: 30:         {;digital_keypad.c: 31:             longpress++;
  7403     176D  3001               	movlw	1
  7404     176E  00FF               	movwf	btemp+1
  7405     176F  087F               	movf	btemp+1,w
  7406     1770  07E9               	addwf	read_digital_keypad@longpress,f
  7407                           
  7408                           ;digital_keypad.c: 36:         }
  7409     1771  2F97               	goto	l2657
  7410     1772                     l2635:
  7411     1772  301E               	movlw	30
  7412     1773  0669               	xorwf	read_digital_keypad@longpress,w
  7413     1774  1D03               	btfss	3,2
  7414     1775  2F77               	goto	u3471
  7415     1776  2F78               	goto	u3470
  7416     1777                     u3471:
  7417     1777  2F7F               	goto	l2645
  7418     1778                     u3470:
  7419     1778                     l2637:
  7420                           
  7421                           ;digital_keypad.c: 38:         {;digital_keypad.c: 39:             longpress++;
  7422     1778  3001               	movlw	1
  7423     1779  00FF               	movwf	btemp+1
  7424     177A  087F               	movf	btemp+1,w
  7425     177B  07E9               	addwf	read_digital_keypad@longpress,f
  7426     177C                     l2639:
  7427                           
  7428                           ;digital_keypad.c: 40:             return 0x80 | pre_key;
  7429     177C  086A               	movf	read_digital_keypad@pre_key,w
  7430     177D  3880               	iorlw	128
  7431     177E  2F98               	goto	l237
  7432     177F                     l2645:
  7433     177F  303F               	movlw	63
  7434     1780  0506               	andwf	6,w	;volatile
  7435     1781  00F2               	movwf	??_read_digital_keypad
  7436     1782  303F               	movlw	63
  7437     1783  0672               	xorwf	??_read_digital_keypad,w
  7438     1784  1D03               	btfss	3,2
  7439     1785  2F87               	goto	u3481
  7440     1786  2F88               	goto	u3480
  7441     1787                     u3481:
  7442     1787  2F97               	goto	l2657
  7443     1788                     u3480:
  7444     1788                     l2647:
  7445     1788  086F               	movf	read_digital_keypad@once,w
  7446     1789  1D03               	btfss	3,2
  7447     178A  2F8C               	goto	u3491
  7448     178B  2F8D               	goto	u3490
  7449     178C                     u3491:
  7450     178C  2F97               	goto	l2657
  7451     178D                     u3490:
  7452     178D                     l2649:
  7453                           
  7454                           ;digital_keypad.c: 43:         {;digital_keypad.c: 44:             once=1;
  7455     178D  01EF               	clrf	read_digital_keypad@once
  7456     178E  0AEF               	incf	read_digital_keypad@once,f
  7457     178F                     l2651:
  7458                           
  7459                           ;digital_keypad.c: 45:             if( longpress < 30)
  7460     178F  301E               	movlw	30
  7461     1790  0269               	subwf	read_digital_keypad@longpress,w
  7462     1791  1803               	skipnc
  7463     1792  2F94               	goto	u3501
  7464     1793  2F95               	goto	u3500
  7465     1794                     u3501:
  7466     1794  2F97               	goto	l242
  7467     1795                     u3500:
  7468     1795                     l2653:
  7469                           
  7470                           ;digital_keypad.c: 46:             {;digital_keypad.c: 47:                 return pre_ke
      +                          y;
  7471     1795  086A               	movf	read_digital_keypad@pre_key,w
  7472     1796  2F98               	goto	l237
  7473     1797                     l242:
  7474     1797                     l2657:
  7475                           
  7476                           ;digital_keypad.c: 52:     return 0x3F;
  7477     1797  303F               	movlw	63
  7478     1798                     l237:
  7479     1798  0008               	return
  7480     1799                     __end_of_read_digital_keypad:
  7481                           
  7482                           	psect	text18
  7483     081E                     __ptext18:	
  7484 ;; *************** function _power_on_screen *****************
  7485 ;; Defined at:
  7486 ;;		line 126 in file "main.c"
  7487 ;; Parameters:    Size  Location     Type
  7488 ;;		None
  7489 ;; Auto vars:     Size  Location     Type
  7490 ;;  i               1    6[BANK0 ] unsigned char 
  7491 ;;  i               1    5[BANK0 ] unsigned char 
  7492 ;; Return value:  Size  Location     Type
  7493 ;;                  1    wreg      void 
  7494 ;; Registers used:
  7495 ;;		wreg, fsr0l, fsr0h, status,2, status,0, btemp+1, pclath, cstack
  7496 ;; Tracked objects:
  7497 ;;		On entry : 0/0
  7498 ;;		On exit  : 0/0
  7499 ;;		Unchanged: 0/0
  7500 ;; Data sizes:     COMMON   BANK0   BANK1   BANK3   BANK2
  7501 ;;      Params:         0       0       0       0       0
  7502 ;;      Locals:         0       2       0       0       0
  7503 ;;      Temps:          0       3       0       0       0
  7504 ;;      Totals:         0       5       0       0       0
  7505 ;;Total ram usage:        5 bytes
  7506 ;; Hardware stack levels used: 1
  7507 ;; Hardware stack levels required when called: 3
  7508 ;; This function calls:
  7509 ;;		_clcd_print
  7510 ;;		_clcd_putch
  7511 ;; This function is called by:
  7512 ;;		_main
  7513 ;; This function uses a non-reentrant model
  7514 ;;
  7515                           
  7516     081E                     _power_on_screen:	
  7517                           ;psect for function _power_on_screen
  7518                           
  7519     081E                     l3295:	
  7520                           ;incstack = 0
  7521                           ; Regs used in _power_on_screen: [wreg-fsr0h+status,2+status,0+btemp+1+pclath+cstack]
  7522                           
  7523                           
  7524                           ;main.c: 129:        for(unsigned char i=0; i<16; i++)
  7525     081E  1283               	bcf	3,5	;RP0=0, select bank0
  7526     081F  1303               	bcf	3,6	;RP1=0, select bank0
  7527     0820  01A5               	clrf	power_on_screen@i
  7528     0821                     l3301:
  7529                           
  7530                           ;main.c: 130:        {;main.c: 131:             clcd_putch(0XFF, (0x80 + i));
  7531     0821  0825               	movf	power_on_screen@i,w
  7532     0822  3E80               	addlw	128
  7533     0823  00A0               	movwf	clcd_putch@addr
  7534     0824  30FF               	movlw	255
  7535     0825  120A  158A  2009  120A  158A  	fcall	_clcd_putch
  7536     082A                     l3303:
  7537                           
  7538                           ;main.c: 132:             _delay((unsigned long)((100)*(20000000/4000.0)));
  7539     082A  3003               	movlw	3
  7540     082B  1283               	bcf	3,5	;RP0=0, select bank0
  7541     082C  1303               	bcf	3,6	;RP1=0, select bank0
  7542     082D  00A4               	movwf	??_power_on_screen+2
  7543     082E  308A               	movlw	138
  7544     082F  00A3               	movwf	??_power_on_screen+1
  7545     0830  3055               	movlw	85
  7546     0831  00A2               	movwf	??_power_on_screen
  7547     0832                     u4747:
  7548     0832  0BA2               	decfsz	??_power_on_screen,f
  7549     0833  2832               	goto	u4747
  7550     0834  0BA3               	decfsz	??_power_on_screen+1,f
  7551     0835  2832               	goto	u4747
  7552     0836  0BA4               	decfsz	??_power_on_screen+2,f
  7553     0837  2832               	goto	u4747
  7554     0838                     l3305:
  7555                           
  7556                           ;main.c: 133:        }
  7557     0838  3001               	movlw	1
  7558     0839  00FF               	movwf	btemp+1
  7559     083A  087F               	movf	btemp+1,w
  7560     083B  1283               	bcf	3,5	;RP0=0, select bank0
  7561     083C  1303               	bcf	3,6	;RP1=0, select bank0
  7562     083D  07A5               	addwf	power_on_screen@i,f
  7563     083E                     l3307:
  7564     083E  3010               	movlw	16
  7565     083F  0225               	subwf	power_on_screen@i,w
  7566     0840  1C03               	skipc
  7567     0841  2843               	goto	u4361
  7568     0842  2844               	goto	u4360
  7569     0843                     u4361:
  7570     0843  2821               	goto	l3301
  7571     0844                     u4360:
  7572     0844                     l3309:
  7573                           
  7574                           ;main.c: 135:        clcd_print("  POWERING ON   ",(0xC0 + 0));
  7575     0844  3011               	movlw	low (STR_16| (0+32768))
  7576     0845  00F6               	movwf	clcd_print@str
  7577     0846  3090               	movlw	high (STR_16| (0+32768))
  7578     0847  00F7               	movwf	clcd_print@str+1
  7579     0848  30C0               	movlw	192
  7580     0849  00F8               	movwf	clcd_print@addr
  7581     084A  160A  118A  25DB  120A  158A  	fcall	_clcd_print
  7582                           
  7583                           ;main.c: 136:        clcd_print(" WASHING MACHINE",(0x90 + 0));
  7584     084F  3033               	movlw	low (STR_17| (0+32768))
  7585     0850  00F6               	movwf	clcd_print@str
  7586     0851  3090               	movlw	high (STR_17| (0+32768))
  7587     0852  00F7               	movwf	clcd_print@str+1
  7588     0853  3090               	movlw	144
  7589     0854  00F8               	movwf	clcd_print@addr
  7590     0855  160A  118A  25DB  120A  158A  	fcall	_clcd_print
  7591     085A                     l3311:
  7592                           
  7593                           ;main.c: 139:        for(unsigned char i=16; i>0; i--)
  7594     085A  3010               	movlw	16
  7595     085B  1283               	bcf	3,5	;RP0=0, select bank0
  7596     085C  1303               	bcf	3,6	;RP1=0, select bank0
  7597     085D  00A6               	movwf	power_on_screen@i_140
  7598     085E                     l3317:
  7599                           
  7600                           ;main.c: 140:        {;main.c: 141:          clcd_putch(0XFF, (0xD0 + i));
  7601     085E  0826               	movf	power_on_screen@i_140,w
  7602     085F  3ED0               	addlw	208
  7603     0860  00A0               	movwf	clcd_putch@addr
  7604     0861  30FF               	movlw	255
  7605     0862  120A  158A  2009  120A  158A  	fcall	_clcd_putch
  7606     0867                     l3319:
  7607                           
  7608                           ;main.c: 142:          _delay((unsigned long)((100)*(20000000/4000.0)));
  7609     0867  3003               	movlw	3
  7610     0868  1283               	bcf	3,5	;RP0=0, select bank0
  7611     0869  1303               	bcf	3,6	;RP1=0, select bank0
  7612     086A  00A4               	movwf	??_power_on_screen+2
  7613     086B  308A               	movlw	138
  7614     086C  00A3               	movwf	??_power_on_screen+1
  7615     086D  3055               	movlw	85
  7616     086E  00A2               	movwf	??_power_on_screen
  7617     086F                     u4757:
  7618     086F  0BA2               	decfsz	??_power_on_screen,f
  7619     0870  286F               	goto	u4757
  7620     0871  0BA3               	decfsz	??_power_on_screen+1,f
  7621     0872  286F               	goto	u4757
  7622     0873  0BA4               	decfsz	??_power_on_screen+2,f
  7623     0874  286F               	goto	u4757
  7624     0875                     l3321:
  7625                           
  7626                           ;main.c: 143:        }
  7627     0875  3001               	movlw	1
  7628     0876  1283               	bcf	3,5	;RP0=0, select bank0
  7629     0877  1303               	bcf	3,6	;RP1=0, select bank0
  7630     0878  02A6               	subwf	power_on_screen@i_140,f
  7631     0879                     l3323:
  7632     0879  0826               	movf	power_on_screen@i_140,w
  7633     087A  1D03               	btfss	3,2
  7634     087B  287D               	goto	u4371
  7635     087C  287E               	goto	u4370
  7636     087D                     u4371:
  7637     087D  285E               	goto	l3317
  7638     087E                     u4370:
  7639     087E                     l3325:
  7640                           
  7641                           ;main.c: 144:        clcd_putch(0XFF, (0xD0 + 0));
  7642     087E  30D0               	movlw	208
  7643     087F  00A0               	movwf	clcd_putch@addr
  7644     0880  30FF               	movlw	255
  7645     0881  120A  158A  2009  120A  158A  	fcall	_clcd_putch
  7646     0886                     l3327:
  7647                           
  7648                           ;main.c: 145:        _delay((unsigned long)((500)*(20000000/4000.0)));
  7649     0886  300D               	movlw	13
  7650     0887  1283               	bcf	3,5	;RP0=0, select bank0
  7651     0888  1303               	bcf	3,6	;RP1=0, select bank0
  7652     0889  00A4               	movwf	??_power_on_screen+2
  7653     088A  30AF               	movlw	175
  7654     088B  00A3               	movwf	??_power_on_screen+1
  7655     088C  30B5               	movlw	181
  7656     088D  00A2               	movwf	??_power_on_screen
  7657     088E                     u4767:
  7658     088E  0BA2               	decfsz	??_power_on_screen,f
  7659     088F  288E               	goto	u4767
  7660     0890  0BA3               	decfsz	??_power_on_screen+1,f
  7661     0891  288E               	goto	u4767
  7662     0892  0BA4               	decfsz	??_power_on_screen+2,f
  7663     0893  288E               	goto	u4767
  7664     0894  2895               	nop2
  7665     0895                     l110:
  7666     0895  0008               	return
  7667     0896                     __end_of_power_on_screen:
  7668                           
  7669                           	psect	text19
  7670     0809                     __ptext19:	
  7671 ;; *************** function _clcd_putch *****************
  7672 ;; Defined at:
  7673 ;;		line 46 in file "clcd.c"
  7674 ;; Parameters:    Size  Location     Type
  7675 ;;  data            1    wreg     const unsigned char 
  7676 ;;  addr            1    0[BANK0 ] unsigned char 
  7677 ;; Auto vars:     Size  Location     Type
  7678 ;;  data            1    1[BANK0 ] const unsigned char 
  7679 ;; Return value:  Size  Location     Type
  7680 ;;                  1    wreg      void 
  7681 ;; Registers used:
  7682 ;;		wreg, status,2, status,0, pclath, cstack
  7683 ;; Tracked objects:
  7684 ;;		On entry : 0/0
  7685 ;;		On exit  : 0/0
  7686 ;;		Unchanged: 0/0
  7687 ;; Data sizes:     COMMON   BANK0   BANK1   BANK3   BANK2
  7688 ;;      Params:         0       1       0       0       0
  7689 ;;      Locals:         0       1       0       0       0
  7690 ;;      Temps:          0       0       0       0       0
  7691 ;;      Totals:         0       2       0       0       0
  7692 ;;Total ram usage:        2 bytes
  7693 ;; Hardware stack levels used: 1
  7694 ;; Hardware stack levels required when called: 2
  7695 ;; This function calls:
  7696 ;;		_clcd_write
  7697 ;; This function is called by:
  7698 ;;		_power_on_screen
  7699 ;;		_washing_program_display
  7700 ;;		_water_level_display
  7701 ;;		_run_program
  7702 ;; This function uses a non-reentrant model
  7703 ;;
  7704                           
  7705     0809                     _clcd_putch:	
  7706                           ;psect for function _clcd_putch
  7707                           
  7708                           
  7709                           ;incstack = 0
  7710                           ; Regs used in _clcd_putch: [wreg+status,2+status,0+pclath+cstack]
  7711                           ;clcd_putch@data stored from wreg
  7712     0809  1283               	bcf	3,5	;RP0=0, select bank0
  7713     080A  1303               	bcf	3,6	;RP1=0, select bank0
  7714     080B  00A1               	movwf	clcd_putch@data
  7715     080C                     l3117:
  7716                           
  7717                           ;clcd.c: 46: void clcd_putch(const char data, unsigned char addr);clcd.c: 47: {;clcd.c: 
      +                          48:     clcd_write(addr, 0);
  7718     080C  01F2               	clrf	clcd_write@mode
  7719     080D  0820               	movf	clcd_putch@addr,w
  7720     080E  160A  118A  2549  120A  158A  	fcall	_clcd_write
  7721                           
  7722                           ;clcd.c: 49:     clcd_write(data, 1);
  7723     0813  01F2               	clrf	clcd_write@mode
  7724     0814  0AF2               	incf	clcd_write@mode,f
  7725     0815  1283               	bcf	3,5	;RP0=0, select bank0
  7726     0816  1303               	bcf	3,6	;RP1=0, select bank0
  7727     0817  0821               	movf	clcd_putch@data,w
  7728     0818  160A  118A  2549  120A  158A  	fcall	_clcd_write
  7729     081D                     l303:
  7730     081D  0008               	return
  7731     081E                     __end_of_clcd_putch:
  7732                           
  7733                           	psect	text20
  7734     15DB                     __ptext20:	
  7735 ;; *************** function _clcd_print *****************
  7736 ;; Defined at:
  7737 ;;		line 52 in file "clcd.c"
  7738 ;; Parameters:    Size  Location     Type
  7739 ;;  str             2    6[COMMON] PTR const unsigned char 
  7740 ;;		 -> STR_39(14), STR_38(16), STR_37(5), STR_36(6), 
  7741 ;;		 -> STR_35(6), STR_34(6), STR_33(6), STR_32(6), 
  7742 ;;		 -> STR_31(5), STR_30(17), STR_29(5), STR_28(11), 
  7743 ;;		 -> STR_27(8), STR_26(6), STR_25(7), STR_24(17), 
  7744 ;;		 -> STR_23(5), STR_22(11), STR_21(13), STR_20(12), 
  7745 ;;		 -> STR_19(12), STR_18(16), STR_17(17), STR_16(17), 
  7746 ;;		 -> STR_15(12), STR_14(13), STR_13(13), STR_12(17), 
  7747 ;;		 -> STR_11(17), STR_10(17), STR_9(4), STR_8(5), 
  7748 ;;		 -> STR_7(7), STR_6(4), STR_5(5), STR_4(7), 
  7749 ;;		 -> STR_3(10), STR_2(6), STR_1(6), 
  7750 ;;  addr            1    8[COMMON] unsigned char 
  7751 ;; Auto vars:     Size  Location     Type
  7752 ;;		None
  7753 ;; Return value:  Size  Location     Type
  7754 ;;                  1    wreg      void 
  7755 ;; Registers used:
  7756 ;;		wreg, fsr0l, fsr0h, status,2, status,0, btemp+1, pclath, cstack
  7757 ;; Tracked objects:
  7758 ;;		On entry : 0/0
  7759 ;;		On exit  : 0/0
  7760 ;;		Unchanged: 0/0
  7761 ;; Data sizes:     COMMON   BANK0   BANK1   BANK3   BANK2
  7762 ;;      Params:         3       0       0       0       0
  7763 ;;      Locals:         0       0       0       0       0
  7764 ;;      Temps:          0       0       0       0       0
  7765 ;;      Totals:         3       0       0       0       0
  7766 ;;Total ram usage:        3 bytes
  7767 ;; Hardware stack levels used: 1
  7768 ;; Hardware stack levels required when called: 2
  7769 ;; This function calls:
  7770 ;;		_clcd_write
  7771 ;; This function is called by:
  7772 ;;		_main
  7773 ;;		_power_on_screen
  7774 ;;		_washing_program_display
  7775 ;;		_water_level_display
  7776 ;;		_door_status_check
  7777 ;;		_run_program
  7778 ;; This function uses a non-reentrant model
  7779 ;;
  7780                           
  7781     15DB                     _clcd_print:	
  7782                           ;psect for function _clcd_print
  7783                           
  7784     15DB                     l3065:	
  7785                           ;incstack = 0
  7786                           ; Regs used in _clcd_print: [wreg-fsr0h+status,2+status,0+btemp+1+pclath+cstack]
  7787                           
  7788                           
  7789                           ;clcd.c: 52: void clcd_print(const char *str, unsigned char addr);clcd.c: 53: {;clcd.c: 
      +                          54:     clcd_write(addr, 0);
  7790     15DB  01F2               	clrf	clcd_write@mode
  7791     15DC  0878               	movf	clcd_print@addr,w
  7792     15DD  160A  118A  2549  160A  118A  	fcall	_clcd_write
  7793                           
  7794                           ;clcd.c: 56:     while (*str != '\0')
  7795     15E2  2DF9               	goto	l3071
  7796     15E3                     l3067:
  7797                           
  7798                           ;clcd.c: 57:     {;clcd.c: 58:         clcd_write(*str, 1);
  7799     15E3  01F2               	clrf	clcd_write@mode
  7800     15E4  0AF2               	incf	clcd_write@mode,f
  7801     15E5  0877               	movf	clcd_print@str+1,w
  7802     15E6  00FF               	movwf	btemp+1
  7803     15E7  0876               	movf	clcd_print@str,w
  7804     15E8  0084               	movwf	4
  7805     15E9  160A  118A  214B  160A  118A  	fcall	stringtab
  7806     15EE  160A  118A  2549  160A  118A  	fcall	_clcd_write
  7807     15F3                     l3069:
  7808                           
  7809                           ;clcd.c: 59:         str++;
  7810     15F3  3001               	movlw	1
  7811     15F4  07F6               	addwf	clcd_print@str,f
  7812     15F5  1803               	skipnc
  7813     15F6  0AF7               	incf	clcd_print@str+1,f
  7814     15F7  3000               	movlw	0
  7815     15F8  07F7               	addwf	clcd_print@str+1,f
  7816     15F9                     l3071:
  7817                           
  7818                           ;clcd.c: 56:     while (*str != '\0')
  7819     15F9  0877               	movf	clcd_print@str+1,w
  7820     15FA  1283               	bcf	3,5	;RP0=0, select bank0
  7821     15FB  1303               	bcf	3,6	;RP1=0, select bank0
  7822     15FC  00FF               	movwf	btemp+1
  7823     15FD  0876               	movf	clcd_print@str,w
  7824     15FE  0084               	movwf	4
  7825     15FF  160A  118A  214B  160A  118A  	fcall	stringtab
  7826     1604  3A00               	xorlw	0
  7827     1605  1D03               	skipz
  7828     1606  2E08               	goto	u3931
  7829     1607  2E09               	goto	u3930
  7830     1608                     u3931:
  7831     1608  2DE3               	goto	l3067
  7832     1609                     u3930:
  7833     1609                     l309:
  7834     1609  0008               	return
  7835     160A                     __end_of_clcd_print:
  7836                           
  7837                           	psect	text21
  7838     07E3                     __ptext21:	
  7839 ;; *************** function _init_config *****************
  7840 ;; Defined at:
  7841 ;;		line 16 in file "main.c"
  7842 ;; Parameters:    Size  Location     Type
  7843 ;;		None
  7844 ;; Auto vars:     Size  Location     Type
  7845 ;;		None
  7846 ;; Return value:  Size  Location     Type
  7847 ;;                  1    wreg      void 
  7848 ;; Registers used:
  7849 ;;		wreg, status,2, status,0, pclath, cstack
  7850 ;; Tracked objects:
  7851 ;;		On entry : 0/0
  7852 ;;		On exit  : 0/0
  7853 ;;		Unchanged: 0/0
  7854 ;; Data sizes:     COMMON   BANK0   BANK1   BANK3   BANK2
  7855 ;;      Params:         0       0       0       0       0
  7856 ;;      Locals:         0       0       0       0       0
  7857 ;;      Temps:          0       0       0       0       0
  7858 ;;      Totals:         0       0       0       0       0
  7859 ;;Total ram usage:        0 bytes
  7860 ;; Hardware stack levels used: 1
  7861 ;; Hardware stack levels required when called: 4
  7862 ;; This function calls:
  7863 ;;		_init_clcd
  7864 ;;		_init_digital_keypad
  7865 ;;		_init_timer2
  7866 ;; This function is called by:
  7867 ;;		_main
  7868 ;; This function uses a non-reentrant model
  7869 ;;
  7870                           
  7871     07E3                     _init_config:	
  7872                           ;psect for function _init_config
  7873                           
  7874     07E3                     l3285:	
  7875                           ;incstack = 0
  7876                           ; Regs used in _init_config: [wreg+status,2+status,0+pclath+cstack]
  7877                           
  7878                           
  7879                           ;main.c: 18:        init_clcd();
  7880     07E3  160A  118A  24FF  120A  118A  	fcall	_init_clcd
  7881                           
  7882                           ;main.c: 21:        init_digital_keypad();
  7883     07E8  120A  118A  27F9  120A  118A  	fcall	_init_digital_keypad
  7884                           
  7885                           ;main.c: 24:        init_timer2();
  7886     07ED  160A  118A  250A  120A  118A  	fcall	_init_timer2
  7887     07F2                     l3287:
  7888                           
  7889                           ;main.c: 27:        TRISC2 = 0;
  7890     07F2  1683               	bsf	3,5	;RP0=1, select bank1
  7891     07F3  1303               	bcf	3,6	;RP1=0, select bank1
  7892     07F4  1107               	bcf	7,2	;volatile
  7893     07F5                     l3289:
  7894                           
  7895                           ;main.c: 29:        TRISC1 = 0;
  7896     07F5  1087               	bcf	7,1	;volatile
  7897     07F6                     l3291:
  7898                           
  7899                           ;main.c: 31:        PEIE = 1;
  7900     07F6  170B               	bsf	11,6	;volatile
  7901     07F7                     l3293:
  7902                           
  7903                           ;main.c: 32:        GIE = 1;
  7904     07F7  178B               	bsf	11,7	;volatile
  7905     07F8                     l69:
  7906     07F8  0008               	return
  7907     07F9                     __end_of_init_config:
  7908                           
  7909                           	psect	text22
  7910     150A                     __ptext22:	
  7911 ;; *************** function _init_timer2 *****************
  7912 ;; Defined at:
  7913 ;;		line 5 in file "timers.c"
  7914 ;; Parameters:    Size  Location     Type
  7915 ;;		None
  7916 ;; Auto vars:     Size  Location     Type
  7917 ;;		None
  7918 ;; Return value:  Size  Location     Type
  7919 ;;                  1    wreg      void 
  7920 ;; Registers used:
  7921 ;;		wreg
  7922 ;; Tracked objects:
  7923 ;;		On entry : 0/0
  7924 ;;		On exit  : 0/0
  7925 ;;		Unchanged: 0/0
  7926 ;; Data sizes:     COMMON   BANK0   BANK1   BANK3   BANK2
  7927 ;;      Params:         0       0       0       0       0
  7928 ;;      Locals:         0       0       0       0       0
  7929 ;;      Temps:          0       0       0       0       0
  7930 ;;      Totals:         0       0       0       0       0
  7931 ;;Total ram usage:        0 bytes
  7932 ;; Hardware stack levels used: 1
  7933 ;; Hardware stack levels required when called: 1
  7934 ;; This function calls:
  7935 ;;		Nothing
  7936 ;; This function is called by:
  7937 ;;		_init_config
  7938 ;; This function uses a non-reentrant model
  7939 ;;
  7940                           
  7941     150A                     _init_timer2:	
  7942                           ;psect for function _init_timer2
  7943                           
  7944     150A                     l2217:	
  7945                           ;incstack = 0
  7946                           ; Regs used in _init_timer2: [wreg]
  7947                           
  7948                           
  7949                           ;timers.c: 8:     T2CKPS0 = 1;
  7950     150A  1283               	bcf	3,5	;RP0=0, select bank0
  7951     150B  1303               	bcf	3,6	;RP1=0, select bank0
  7952     150C  1412               	bsf	18,0	;volatile
  7953                           
  7954                           ;timers.c: 9:     T2CKPS1 = 1;
  7955     150D  1492               	bsf	18,1	;volatile
  7956     150E                     l2219:
  7957                           
  7958                           ;timers.c: 12:     PR2 = 250;
  7959     150E  30FA               	movlw	250
  7960     150F  1683               	bsf	3,5	;RP0=1, select bank1
  7961     1510  1303               	bcf	3,6	;RP1=0, select bank1
  7962     1511  0092               	movwf	18	;volatile
  7963     1512                     l2221:
  7964                           
  7965                           ;timers.c: 15:     TMR2IE = 1;
  7966     1512  148C               	bsf	12,1	;volatile
  7967     1513                     l2223:
  7968                           
  7969                           ;timers.c: 18:     TMR2ON = 0;
  7970     1513  1283               	bcf	3,5	;RP0=0, select bank0
  7971     1514  1303               	bcf	3,6	;RP1=0, select bank0
  7972     1515  1112               	bcf	18,2	;volatile
  7973     1516                     l277:
  7974     1516  0008               	return
  7975     1517                     __end_of_init_timer2:
  7976                           
  7977                           	psect	text23
  7978     07F9                     __ptext23:	
  7979 ;; *************** function _init_digital_keypad *****************
  7980 ;; Defined at:
  7981 ;;		line 4 in file "digital_keypad.c"
  7982 ;; Parameters:    Size  Location     Type
  7983 ;;		None
  7984 ;; Auto vars:     Size  Location     Type
  7985 ;;		None
  7986 ;; Return value:  Size  Location     Type
  7987 ;;                  1    wreg      void 
  7988 ;; Registers used:
  7989 ;;		wreg, status,2
  7990 ;; Tracked objects:
  7991 ;;		On entry : 0/0
  7992 ;;		On exit  : 0/0
  7993 ;;		Unchanged: 0/0
  7994 ;; Data sizes:     COMMON   BANK0   BANK1   BANK3   BANK2
  7995 ;;      Params:         0       0       0       0       0
  7996 ;;      Locals:         0       0       0       0       0
  7997 ;;      Temps:          0       0       0       0       0
  7998 ;;      Totals:         0       0       0       0       0
  7999 ;;Total ram usage:        0 bytes
  8000 ;; Hardware stack levels used: 1
  8001 ;; Hardware stack levels required when called: 1
  8002 ;; This function calls:
  8003 ;;		Nothing
  8004 ;; This function is called by:
  8005 ;;		_init_config
  8006 ;; This function uses a non-reentrant model
  8007 ;;
  8008                           
  8009     07F9                     _init_digital_keypad:	
  8010                           ;psect for function _init_digital_keypad
  8011                           
  8012     07F9                     l2215:	
  8013                           ;incstack = 0
  8014                           ; Regs used in _init_digital_keypad: [wreg+status,2]
  8015                           
  8016                           
  8017                           ;digital_keypad.c: 7:     TRISB = TRISB | 0x3F;
  8018     07F9  1683               	bsf	3,5	;RP0=1, select bank1
  8019     07FA  1303               	bcf	3,6	;RP1=0, select bank1
  8020     07FB  0806               	movf	6,w	;volatile
  8021     07FC  383F               	iorlw	63
  8022     07FD  0086               	movwf	6	;volatile
  8023     07FE                     l227:
  8024     07FE  0008               	return
  8025     07FF                     __end_of_init_digital_keypad:
  8026                           
  8027                           	psect	text24
  8028     14FF                     __ptext24:	
  8029 ;; *************** function _init_clcd *****************
  8030 ;; Defined at:
  8031 ;;		line 34 in file "clcd.c"
  8032 ;; Parameters:    Size  Location     Type
  8033 ;;		None
  8034 ;; Auto vars:     Size  Location     Type
  8035 ;;		None
  8036 ;; Return value:  Size  Location     Type
  8037 ;;                  1    wreg      void 
  8038 ;; Registers used:
  8039 ;;		wreg, status,2, status,0, pclath, cstack
  8040 ;; Tracked objects:
  8041 ;;		On entry : 0/0
  8042 ;;		On exit  : 0/0
  8043 ;;		Unchanged: 0/0
  8044 ;; Data sizes:     COMMON   BANK0   BANK1   BANK3   BANK2
  8045 ;;      Params:         0       0       0       0       0
  8046 ;;      Locals:         0       0       0       0       0
  8047 ;;      Temps:          0       0       0       0       0
  8048 ;;      Totals:         0       0       0       0       0
  8049 ;;Total ram usage:        0 bytes
  8050 ;; Hardware stack levels used: 1
  8051 ;; Hardware stack levels required when called: 3
  8052 ;; This function calls:
  8053 ;;		_init_display_controller
  8054 ;; This function is called by:
  8055 ;;		_init_config
  8056 ;; This function uses a non-reentrant model
  8057 ;;
  8058                           
  8059     14FF                     _init_clcd:	
  8060                           ;psect for function _init_clcd
  8061                           
  8062     14FF                     l3109:	
  8063                           ;incstack = 0
  8064                           ; Regs used in _init_clcd: [wreg+status,2+status,0+pclath+cstack]
  8065                           
  8066                           
  8067                           ;clcd.c: 37:     TRISD = 0x00;
  8068     14FF  1683               	bsf	3,5	;RP0=1, select bank1
  8069     1500  1303               	bcf	3,6	;RP1=0, select bank1
  8070     1501  0188               	clrf	8	;volatile
  8071     1502                     l3111:
  8072                           
  8073                           ;clcd.c: 40:     TRISE2 = 0;
  8074     1502  1109               	bcf	9,2	;volatile
  8075     1503                     l3113:
  8076                           
  8077                           ;clcd.c: 41:     TRISE1 = 0;
  8078     1503  1089               	bcf	9,1	;volatile
  8079     1504                     l3115:
  8080                           
  8081                           ;clcd.c: 43:     init_display_controller();
  8082     1504  160A  118A  2644  160A  118A  	fcall	_init_display_controller
  8083     1509                     l300:
  8084     1509  0008               	return
  8085     150A                     __end_of_init_clcd:
  8086                           
  8087                           	psect	text25
  8088     1644                     __ptext25:	
  8089 ;; *************** function _init_display_controller *****************
  8090 ;; Defined at:
  8091 ;;		line 16 in file "clcd.c"
  8092 ;; Parameters:    Size  Location     Type
  8093 ;;		None
  8094 ;; Auto vars:     Size  Location     Type
  8095 ;;		None
  8096 ;; Return value:  Size  Location     Type
  8097 ;;                  1    wreg      void 
  8098 ;; Registers used:
  8099 ;;		wreg, status,2, status,0, pclath, cstack
  8100 ;; Tracked objects:
  8101 ;;		On entry : 0/0
  8102 ;;		On exit  : 0/0
  8103 ;;		Unchanged: 0/0
  8104 ;; Data sizes:     COMMON   BANK0   BANK1   BANK3   BANK2
  8105 ;;      Params:         0       0       0       0       0
  8106 ;;      Locals:         0       0       0       0       0
  8107 ;;      Temps:          2       0       0       0       0
  8108 ;;      Totals:         2       0       0       0       0
  8109 ;;Total ram usage:        2 bytes
  8110 ;; Hardware stack levels used: 1
  8111 ;; Hardware stack levels required when called: 2
  8112 ;; This function calls:
  8113 ;;		_clcd_write
  8114 ;; This function is called by:
  8115 ;;		_init_clcd
  8116 ;; This function uses a non-reentrant model
  8117 ;;
  8118                           
  8119     1644                     _init_display_controller:	
  8120                           ;psect for function _init_display_controller
  8121                           
  8122     1644                     l3077:	
  8123                           ;incstack = 0
  8124                           ; Regs used in _init_display_controller: [wreg+status,2+status,0+pclath+cstack]
  8125                           
  8126                           
  8127                           ;clcd.c: 19:     _delay((unsigned long)((30)*(20000000/4000.0)));
  8128     1644  30C3               	movlw	195
  8129     1645  00F7               	movwf	??_init_display_controller+1
  8130     1646  30CD               	movlw	205
  8131     1647  00F6               	movwf	??_init_display_controller
  8132     1648                     u4777:
  8133     1648  0BF6               	decfsz	??_init_display_controller,f
  8134     1649  2E48               	goto	u4777
  8135     164A  0BF7               	decfsz	??_init_display_controller+1,f
  8136     164B  2E48               	goto	u4777
  8137     164C                     l3079:
  8138                           
  8139                           ;clcd.c: 22:     clcd_write(0x33, 0);
  8140     164C  01F2               	clrf	clcd_write@mode
  8141     164D  3033               	movlw	51
  8142     164E  160A  118A  2549  160A  118A  	fcall	_clcd_write
  8143     1653                     l3081:
  8144                           
  8145                           ;clcd.c: 23:     _delay((unsigned long)((4100)*(20000000/4000000.0)));
  8146     1653  301B               	movlw	27
  8147     1654  00F7               	movwf	??_init_display_controller+1
  8148     1655  309E               	movlw	158
  8149     1656  00F6               	movwf	??_init_display_controller
  8150     1657                     u4787:
  8151     1657  0BF6               	decfsz	??_init_display_controller,f
  8152     1658  2E57               	goto	u4787
  8153     1659  0BF7               	decfsz	??_init_display_controller+1,f
  8154     165A  2E57               	goto	u4787
  8155     165B  0000               	nop
  8156                           
  8157                           ;clcd.c: 24:     clcd_write(0x33, 0);
  8158     165C  01F2               	clrf	clcd_write@mode
  8159     165D  3033               	movlw	51
  8160     165E  160A  118A  2549  160A  118A  	fcall	_clcd_write
  8161     1663                     l3083:
  8162                           
  8163                           ;clcd.c: 25:      _delay((unsigned long)((100)*(20000000/4000000.0)));
  8164     1663  30A6               	movlw	166
  8165     1664  00F6               	movwf	??_init_display_controller
  8166     1665                     u4797:
  8167     1665  0BF6               	decfsz	??_init_display_controller,f
  8168     1666  2E65               	goto	u4797
  8169     1667  0000               	nop
  8170     1668                     l3085:
  8171                           
  8172                           ;clcd.c: 26:     clcd_write(0x33, 0);
  8173     1668  01F2               	clrf	clcd_write@mode
  8174     1669  3033               	movlw	51
  8175     166A  160A  118A  2549  160A  118A  	fcall	_clcd_write
  8176     166F                     l3087:
  8177                           
  8178                           ;clcd.c: 27:     _delay((unsigned long)((1)*(20000000/4000000.0)));
  8179     166F  2E70               	nop2	;2 cycle nop
  8180     1670  2E71               	nop2	;2 cycle nop
  8181     1671  0000               	nop
  8182     1672                     l3089:
  8183                           
  8184                           ;clcd.c: 28:    clcd_write(0x01, 0);
  8185     1672  01F2               	clrf	clcd_write@mode
  8186     1673  3001               	movlw	1
  8187     1674  160A  118A  2549  160A  118A  	fcall	_clcd_write
  8188     1679                     l3091:
  8189                           
  8190                           ;clcd.c: 29:     _delay((unsigned long)((100)*(20000000/4000000.0)));
  8191     1679  30A6               	movlw	166
  8192     167A  00F6               	movwf	??_init_display_controller
  8193     167B                     u4807:
  8194     167B  0BF6               	decfsz	??_init_display_controller,f
  8195     167C  2E7B               	goto	u4807
  8196     167D  0000               	nop
  8197                           
  8198                           ;clcd.c: 30:     clcd_write(0x0C, 0);
  8199     167E  01F2               	clrf	clcd_write@mode
  8200     167F  300C               	movlw	12
  8201     1680  160A  118A  2549  160A  118A  	fcall	_clcd_write
  8202     1685                     l3093:
  8203                           
  8204                           ;clcd.c: 31:     _delay((unsigned long)((100)*(20000000/4000000.0)));
  8205     1685  30A6               	movlw	166
  8206     1686  00F6               	movwf	??_init_display_controller
  8207     1687                     u4817:
  8208     1687  0BF6               	decfsz	??_init_display_controller,f
  8209     1688  2E87               	goto	u4817
  8210     1689  0000               	nop
  8211     168A                     l297:
  8212     168A  0008               	return
  8213     168B                     __end_of_init_display_controller:
  8214                           
  8215                           	psect	text26
  8216     1549                     __ptext26:	
  8217 ;; *************** function _clcd_write *****************
  8218 ;; Defined at:
  8219 ;;		line 4 in file "clcd.c"
  8220 ;; Parameters:    Size  Location     Type
  8221 ;;  byte            1    wreg     unsigned char 
  8222 ;;  mode            1    2[COMMON] unsigned char 
  8223 ;; Auto vars:     Size  Location     Type
  8224 ;;  byte            1    5[COMMON] unsigned char 
  8225 ;; Return value:  Size  Location     Type
  8226 ;;                  1    wreg      void 
  8227 ;; Registers used:
  8228 ;;		wreg
  8229 ;; Tracked objects:
  8230 ;;		On entry : 0/0
  8231 ;;		On exit  : 0/0
  8232 ;;		Unchanged: 0/0
  8233 ;; Data sizes:     COMMON   BANK0   BANK1   BANK3   BANK2
  8234 ;;      Params:         1       0       0       0       0
  8235 ;;      Locals:         1       0       0       0       0
  8236 ;;      Temps:          2       0       0       0       0
  8237 ;;      Totals:         4       0       0       0       0
  8238 ;;Total ram usage:        4 bytes
  8239 ;; Hardware stack levels used: 1
  8240 ;; Hardware stack levels required when called: 1
  8241 ;; This function calls:
  8242 ;;		Nothing
  8243 ;; This function is called by:
  8244 ;;		_clear_screen
  8245 ;;		_init_display_controller
  8246 ;;		_clcd_putch
  8247 ;;		_clcd_print
  8248 ;; This function uses a non-reentrant model
  8249 ;;
  8250                           
  8251     1549                     _clcd_write:	
  8252                           ;psect for function _clcd_write
  8253                           
  8254                           
  8255                           ;incstack = 0
  8256                           ; Regs used in _clcd_write: [wreg]
  8257                           ;clcd_write@byte stored from wreg
  8258     1549  00F5               	movwf	clcd_write@byte
  8259     154A                     l3057:
  8260                           
  8261                           ;clcd.c: 4:  void clcd_write(unsigned char byte, unsigned char mode);clcd.c: 5: {;clcd.c
      +                          : 6:     RE2 = mode;
  8262     154A  1872               	btfsc	clcd_write@mode,0
  8263     154B  2D4D               	goto	u3911
  8264     154C  2D51               	goto	u3910
  8265     154D                     u3911:
  8266     154D  1283               	bcf	3,5	;RP0=0, select bank0
  8267     154E  1303               	bcf	3,6	;RP1=0, select bank0
  8268     154F  1509               	bsf	9,2	;volatile
  8269     1550  2D54               	goto	u3924
  8270     1551                     u3910:
  8271     1551  1283               	bcf	3,5	;RP0=0, select bank0
  8272     1552  1303               	bcf	3,6	;RP1=0, select bank0
  8273     1553  1109               	bcf	9,2	;volatile
  8274     1554                     u3924:
  8275     1554                     l3059:
  8276                           
  8277                           ;clcd.c: 7:     PORTD = byte;
  8278     1554  0875               	movf	clcd_write@byte,w
  8279     1555  0088               	movwf	8	;volatile
  8280     1556                     l3061:
  8281                           
  8282                           ;clcd.c: 9:     RE1 = 1;
  8283     1556  1489               	bsf	9,1	;volatile
  8284                           
  8285                           ;clcd.c: 10:     _delay((unsigned long)((100)*(20000000/4000000.0)));
  8286     1557  30A6               	movlw	166
  8287     1558  00F3               	movwf	??_clcd_write
  8288     1559                     u4827:
  8289     1559  0BF3               	decfsz	??_clcd_write,f
  8290     155A  2D59               	goto	u4827
  8291     155B  0000               	nop
  8292     155C                     l3063:
  8293                           
  8294                           ;clcd.c: 11:     RE1 = 0;
  8295     155C  1283               	bcf	3,5	;RP0=0, select bank0
  8296     155D  1303               	bcf	3,6	;RP1=0, select bank0
  8297     155E  1089               	bcf	9,1	;volatile
  8298                           
  8299                           ;clcd.c: 13:     _delay((unsigned long)((4100)*(20000000/4000000.0)));
  8300     155F  301B               	movlw	27
  8301     1560  00F4               	movwf	??_clcd_write+1
  8302     1561  309E               	movlw	158
  8303     1562  00F3               	movwf	??_clcd_write
  8304     1563                     u4837:
  8305     1563  0BF3               	decfsz	??_clcd_write,f
  8306     1564  2D63               	goto	u4837
  8307     1565  0BF4               	decfsz	??_clcd_write+1,f
  8308     1566  2D63               	goto	u4837
  8309     1567  0000               	nop
  8310     1568                     l294:
  8311     1568  0008               	return
  8312     1569                     __end_of_clcd_write:
  8313                           
  8314                           	psect	text27
  8315     160A                     __ptext27:	
  8316 ;; *************** function _isr *****************
  8317 ;; Defined at:
  8318 ;;		line 6 in file "isr.c"
  8319 ;; Parameters:    Size  Location     Type
  8320 ;;		None
  8321 ;; Auto vars:     Size  Location     Type
  8322 ;;		None
  8323 ;; Return value:  Size  Location     Type
  8324 ;;                  1    wreg      void 
  8325 ;; Registers used:
  8326 ;;		wreg, status,2, status,0
  8327 ;; Tracked objects:
  8328 ;;		On entry : 0/0
  8329 ;;		On exit  : 0/0
  8330 ;;		Unchanged: 0/0
  8331 ;; Data sizes:     COMMON   BANK0   BANK1   BANK3   BANK2
  8332 ;;      Params:         0       0       0       0       0
  8333 ;;      Locals:         0       0       0       0       0
  8334 ;;      Temps:          2       0       0       0       0
  8335 ;;      Totals:         2       0       0       0       0
  8336 ;;Total ram usage:        2 bytes
  8337 ;; Hardware stack levels used: 1
  8338 ;; This function calls:
  8339 ;;		Nothing
  8340 ;; This function is called by:
  8341 ;;		Interrupt level 1
  8342 ;; This function uses a non-reentrant model
  8343 ;;
  8344                           
  8345     160A                     _isr:	
  8346                           ;psect for function _isr
  8347                           
  8348     160A                     i1l3037:
  8349                           
  8350                           ;isr.c: 8:     static unsigned int count = 0;;isr.c: 10:     if (TMR2IF == 1)
  8351     160A  1283               	bcf	3,5	;RP0=0, select bank0
  8352     160B  1303               	bcf	3,6	;RP1=0, select bank0
  8353     160C  1C8C               	btfss	12,1	;volatile
  8354     160D  2E0F               	goto	u386_21
  8355     160E  2E10               	goto	u386_20
  8356     160F                     u386_21:
  8357     160F  2E3D               	goto	i1l264
  8358     1610                     u386_20:
  8359     1610                     i1l3039:
  8360                           
  8361                           ;isr.c: 11:     {;isr.c: 12:         if (++count == 1250)
  8362     1610  3001               	movlw	1
  8363     1611  1683               	bsf	3,5	;RP0=1, select bank1
  8364     1612  1303               	bcf	3,6	;RP1=0, select bank1
  8365     1613  07B2               	addwf	isr@count^(0+128),f
  8366     1614  1803               	skipnc
  8367     1615  0AB3               	incf	(isr@count+1)^(0+128),f
  8368     1616  3000               	movlw	0
  8369     1617  07B3               	addwf	(isr@count+1)^(0+128),f
  8370     1618  30E2               	movlw	226
  8371     1619  0632               	xorwf	isr@count^(0+128),w
  8372     161A  3004               	movlw	4
  8373     161B  1903               	skipnz
  8374     161C  0633               	xorwf	(isr@count+1)^(0+128),w
  8375     161D  1D03               	btfss	3,2
  8376     161E  2E20               	goto	u387_21
  8377     161F  2E21               	goto	u387_20
  8378     1620                     u387_21:
  8379     1620  2E3B               	goto	i1l3055
  8380     1621                     u387_20:
  8381     1621                     i1l3041:
  8382                           
  8383                           ;isr.c: 13:         {;isr.c: 14:             count = 0;
  8384     1621  01B2               	clrf	isr@count^(0+128)
  8385     1622  01B3               	clrf	(isr@count+1)^(0+128)
  8386     1623                     i1l3043:
  8387                           
  8388                           ;isr.c: 15:             if(sec>0)
  8389     1623  1283               	bcf	3,5	;RP0=0, select bank0
  8390     1624  1303               	bcf	3,6	;RP1=0, select bank0
  8391     1625  086C               	movf	_sec,w
  8392     1626  1903               	btfsc	3,2
  8393     1627  2E29               	goto	u388_21
  8394     1628  2E2A               	goto	u388_20
  8395     1629                     u388_21:
  8396     1629  2E2D               	goto	i1l3047
  8397     162A                     u388_20:
  8398     162A                     i1l3045:
  8399                           
  8400                           ;isr.c: 16:             {;isr.c: 17:                 sec--;
  8401     162A  3001               	movlw	1
  8402     162B  02EC               	subwf	_sec,f
  8403                           
  8404                           ;isr.c: 18:             }
  8405     162C  2E3B               	goto	i1l3055
  8406     162D                     i1l3047:
  8407     162D  086C               	movf	_sec,w
  8408     162E  1D03               	btfss	3,2
  8409     162F  2E31               	goto	u389_21
  8410     1630  2E32               	goto	u389_20
  8411     1631                     u389_21:
  8412     1631  2E3B               	goto	i1l3055
  8413     1632                     u389_20:
  8414     1632                     i1l3049:
  8415     1632  086B               	movf	_min,w
  8416     1633  1903               	btfsc	3,2
  8417     1634  2E36               	goto	u390_21
  8418     1635  2E37               	goto	u390_20
  8419     1636                     u390_21:
  8420     1636  2E3B               	goto	i1l3055
  8421     1637                     u390_20:
  8422     1637                     i1l3051:
  8423                           
  8424                           ;isr.c: 20:             {;isr.c: 22:                 min--;
  8425     1637  3001               	movlw	1
  8426     1638  02EB               	subwf	_min,f
  8427     1639                     i1l3053:
  8428                           
  8429                           ;isr.c: 23:                 sec=59;
  8430     1639  303B               	movlw	59
  8431     163A  00EC               	movwf	_sec
  8432     163B                     i1l3055:
  8433                           
  8434                           ;isr.c: 29:         TMR2IF = 0;
  8435     163B  1283               	bcf	3,5	;RP0=0, select bank0
  8436     163C  108C               	bcf	12,1	;volatile
  8437     163D                     i1l264:
  8438     163D  0871               	movf	??_isr+1,w
  8439     163E  008A               	movwf	10
  8440     163F  0E70               	swapf	??_isr,w
  8441     1640  0083               	movwf	3
  8442     1641  0EFE               	swapf	btemp,f
  8443     1642  0E7E               	swapf	btemp,w
  8444     1643  0009               	retfie
  8445     1644                     __end_of_isr:
  8446     007E                     btemp	set	126	;btemp
  8447     007E                     wtemp0	set	126
  8448                           
  8449                           	psect	intentry
  8450     0004                     __pintentry:	
  8451                           ;incstack = 0
  8452                           ; Regs used in _isr: [wreg+status,2+status,0]
  8453                           
  8454     0004                     interrupt_function:
  8455     007E                     saved_w	set	btemp
  8456     0004  00FE               	movwf	btemp
  8457     0005  0E03               	swapf	3,w
  8458     0006  00F0               	movwf	??_isr
  8459     0007  080A               	movf	10,w
  8460     0008  00F1               	movwf	??_isr+1
  8461     0009  160A  118A  2E0A   	ljmp	_isr

Data Sizes:
    Strings     331
    Constant    0
    Data        19
    BSS         18
    Persistent  2
    Stack       0

Auto Spaces:
    Space          Size  Autos    Used
    COMMON           14     10      12
    BANK0            80     65      80
    BANK1            80      0      22
    BANK3            96      0       0
    BANK2            96      0       0

Pointer List with Targets:

    clcd_print@str	PTR const unsigned char  size(2) Largest target is 17
		 -> STR_1(CODE[6]), STR_10(CODE[17]), STR_11(CODE[17]), STR_12(CODE[17]), 
		 -> STR_13(CODE[13]), STR_14(CODE[13]), STR_15(CODE[12]), STR_16(CODE[17]), 
		 -> STR_17(CODE[17]), STR_18(CODE[16]), STR_19(CODE[12]), STR_2(CODE[6]), 
		 -> STR_20(CODE[12]), STR_21(CODE[13]), STR_22(CODE[11]), STR_23(CODE[5]), 
		 -> STR_24(CODE[17]), STR_25(CODE[7]), STR_26(CODE[6]), STR_27(CODE[8]), 
		 -> STR_28(CODE[11]), STR_29(CODE[5]), STR_3(CODE[10]), STR_30(CODE[17]), 
		 -> STR_31(CODE[5]), STR_32(CODE[6]), STR_33(CODE[6]), STR_34(CODE[6]), 
		 -> STR_35(CODE[6]), STR_36(CODE[6]), STR_37(CODE[5]), STR_38(CODE[16]), 
		 -> STR_39(CODE[14]), STR_4(CODE[7]), STR_5(CODE[5]), STR_6(CODE[4]), 
		 -> STR_7(CODE[7]), STR_8(CODE[5]), STR_9(CODE[4]), 

    washing_prog	PTR unsigned char [4] size(2) Largest target is 10
		 -> STR_1(CODE[6]), STR_2(CODE[6]), STR_3(CODE[10]), STR_4(CODE[7]), 

    water_level_arr	PTR unsigned char [5] size(2) Largest target is 7
		 -> STR_5(CODE[5]), STR_6(CODE[4]), STR_7(CODE[7]), STR_8(CODE[5]), 
		 -> STR_9(CODE[4]), 


Critical Paths under _main in COMMON

    _run_program->___awdiv
    _run_program->___xxtofl
    _door_status_check->_clcd_print
    _clear_screen->_clcd_write
    ___fltol->___xxtofl
    ___flsub->___fladd
    ___flsub->___xxtofl
    ___flmul->___xxtofl
    ___flge->___xxtofl
    _clcd_putch->___awdiv
    _clcd_print->_clcd_write
    _init_clcd->_init_display_controller
    _init_display_controller->_clcd_write

Critical Paths under _isr in COMMON

    None.

Critical Paths under _main in BANK0

    _main->_run_program
    _water_level_display->_clcd_putch
    _washing_program_display->_clcd_putch
    _run_program->___flge
    ___fltol->___flmul
    ___flsub->___flmul
    ___flmul->___xxtofl
    ___flge->___flsub
    _power_on_screen->_clcd_putch

Critical Paths under _isr in BANK0

    None.

Critical Paths under _main in BANK1

    None.

Critical Paths under _isr in BANK1

    None.

Critical Paths under _main in BANK3

    None.

Critical Paths under _isr in BANK3

    None.

Critical Paths under _main in BANK2

    None.

Critical Paths under _isr in BANK2

    None.

Call Graph Tables:

 ---------------------------------------------------------------------------------
 (Depth) Function   	        Calls       Base Space   Used Autos Params    Refs
 ---------------------------------------------------------------------------------
 (0) _main                                                 6     6      0   86142
                                             60 BANK0      5     5      0
                         _clcd_print
                       _clear_screen
                        _init_config
                    _power_on_screen
                _read_digital_keypad
                        _run_program
               _set_time_for_program
            _washing_program_display
                _water_level_display
 ---------------------------------------------------------------------------------
 (1) _water_level_display                                  3     3      0   13245
                                              2 BANK0      3     3      0
                         _clcd_print
                         _clcd_putch
                       _clear_screen
 ---------------------------------------------------------------------------------
 (1) _washing_program_display                              3     3      0   13245
                                              2 BANK0      3     3      0
                         _clcd_print
                         _clcd_putch
                       _clear_screen
 ---------------------------------------------------------------------------------
 (1) _set_time_for_program                                 0     0      0       0
 ---------------------------------------------------------------------------------
 (1) _run_program                                          8     8      0   35056
                                             52 BANK0      8     8      0
                            ___awdiv
                            ___awmod
                             ___flge
                            ___flmul
                            ___flsub
                            ___fltol
                             ___wmul
                           ___xxtofl
                         _clcd_print
                         _clcd_putch
                       _clear_screen
                  _door_status_check
 ---------------------------------------------------------------------------------
 (2) _door_status_check                                    0     0      0   10840
                         _clcd_print
                       _clear_screen
 ---------------------------------------------------------------------------------
 (2) _clear_screen                                         1     1      0     962
                                              6 COMMON     1     1      0
                         _clcd_write
 ---------------------------------------------------------------------------------
 (2) ___xxtofl                                            14    10      4     702
                                              2 COMMON     8     4      4
                                              0 BANK0      6     6      0
 ---------------------------------------------------------------------------------
 (2) ___wmul                                               6     2      4    1696
                                              2 COMMON     6     2      4
 ---------------------------------------------------------------------------------
 (2) ___fltol                                             10     6      4     381
                                             32 BANK0     10     6      4
                            ___flmul (ARG)
                           ___xxtofl (ARG)
 ---------------------------------------------------------------------------------
 (2) ___flsub                                              8     0      8    2333
                                             32 BANK0      8     0      8
                            ___fladd
                            ___flmul (ARG)
                           ___xxtofl (ARG)
 ---------------------------------------------------------------------------------
 (3) ___fladd                                             20    12      8    2136
                                              2 COMMON     8     0      8
                                              0 BANK0     12    12      0
 ---------------------------------------------------------------------------------
 (2) ___flmul                                             26    18      8    3713
                                              6 BANK0     26    18      8
                          __Umul8_16
                           ___xxtofl (ARG)
 ---------------------------------------------------------------------------------
 (3) __Umul8_16                                            9     7      2     980
                                              2 COMMON     4     2      2
                                              0 BANK0      5     5      0
 ---------------------------------------------------------------------------------
 (2) ___flge                                              12     4      8     334
                                             40 BANK0     12     4      8
                            ___flmul (ARG)
                            ___flsub (ARG)
                           ___xxtofl (ARG)
 ---------------------------------------------------------------------------------
 (2) ___awmod                                              6     2      4     904
                                              2 COMMON     6     2      4
 ---------------------------------------------------------------------------------
 (2) ___awdiv                                              8     4      4     908
                                              2 COMMON     8     4      4
 ---------------------------------------------------------------------------------
 (1) _read_digital_keypad                                  2     2      0      22
                                              2 COMMON     2     2      0
 ---------------------------------------------------------------------------------
 (1) _power_on_screen                                      5     5      0   12450
                                              2 BANK0      5     5      0
                         _clcd_print
                         _clcd_putch
 ---------------------------------------------------------------------------------
 (2) _clcd_putch                                           2     1      1    2374
                                              0 BANK0      2     1      1
                            ___awdiv (ARG)
                            ___awmod (ARG)
                         _clcd_write
 ---------------------------------------------------------------------------------
 (2) _clcd_print                                           3     0      3    9878
                                              6 COMMON     3     0      3
                         _clcd_write
 ---------------------------------------------------------------------------------
 (1) _init_config                                          0     0      0     962
                          _init_clcd
                _init_digital_keypad
                        _init_timer2
 ---------------------------------------------------------------------------------
 (2) _init_timer2                                          0     0      0       0
 ---------------------------------------------------------------------------------
 (2) _init_digital_keypad                                  0     0      0       0
 ---------------------------------------------------------------------------------
 (2) _init_clcd                                            0     0      0     962
            _init_display_controller
 ---------------------------------------------------------------------------------
 (3) _init_display_controller                              2     2      0     962
                                              6 COMMON     2     2      0
                         _clcd_write
 ---------------------------------------------------------------------------------
 (3) _clcd_write                                           4     3      1     962
                                              2 COMMON     4     3      1
 ---------------------------------------------------------------------------------
 Estimated maximum stack depth 3
 ---------------------------------------------------------------------------------
 (Depth) Function   	        Calls       Base Space   Used Autos Params    Refs
 ---------------------------------------------------------------------------------
 (5) _isr                                                  2     2      0       0
                                              0 COMMON     2     2      0
 ---------------------------------------------------------------------------------
 Estimated maximum stack depth 5
 ---------------------------------------------------------------------------------

 Call Graph Graphs:

 _main (ROOT)
   _clcd_print
     _clcd_write
   _clear_screen
     _clcd_write
   _init_config
     _init_clcd
       _init_display_controller
         _clcd_write
     _init_digital_keypad
     _init_timer2
   _power_on_screen
     _clcd_print
     _clcd_putch
       ___awdiv (ARG)
       ___awmod (ARG)
       _clcd_write (ARG)
   _read_digital_keypad
   _run_program
     ___awdiv
     ___awmod
     ___flge
       ___flmul (ARG)
         __Umul8_16
         ___xxtofl (ARG)
       ___flsub (ARG)
         ___fladd
         ___flmul (ARG)
         ___xxtofl (ARG)
       ___xxtofl (ARG)
     ___flmul
     ___flsub
     ___fltol
       ___flmul (ARG)
       ___xxtofl (ARG)
     ___wmul
     ___xxtofl
     _clcd_print
     _clcd_putch
     _clear_screen
     _door_status_check
       _clcd_print
       _clear_screen
   _set_time_for_program
   _washing_program_display
     _clcd_print
     _clcd_putch
     _clear_screen
   _water_level_display
     _clcd_print
     _clcd_putch
     _clear_screen

 _isr (ROOT)

 Address spaces:
Name               Size   Autos  Total    Cost      Usage
BANK3               60      0       0       9        0.0%
BITBANK3            60      0       0       8        0.0%
SFR3                 0      0       0       4        0.0%
BITSFR3              0      0       0       4        0.0%
BANK2               60      0       0      11        0.0%
BITBANK2            60      0       0      10        0.0%
SFR2                 0      0       0       5        0.0%
BITSFR2              0      0       0       5        0.0%
BANK1               50      0      16       7       27.5%
BITBANK1            50      0       0       6        0.0%
SFR1                 0      0       0       2        0.0%
BITSFR1              0      0       0       2        0.0%
BANK0               50     41      50       5      100.0%
BITBANK0            50      0       0       4        0.0%
SFR0                 0      0       0       1        0.0%
BITSFR0              0      0       0       1        0.0%
COMMON               E      A       C       1       85.7%
BITCOMMON            E      0       0       0        0.0%
CODE                 0      0       0       0        0.0%
DATA                 0      0      72      12        0.0%
ABS                  0      0      72       3        0.0%
NULL                 0      0       0       0        0.0%
STACK                0      0       0       2        0.0%
EEDATA             100      0       0       0        0.0%


Microchip Technology PIC Macro Assembler V2.46 build 20240104201356 
Symbol Table                                                                                   Sat Mar 30 20:27:48 2024

                              pc 0002                   clcd_print@addr 0078                               l69 07F8  
                             l85 0D67                     ___awdiv@sign 0077                               fsr 0004  
            ___wmul@multiplicand 0074           water_level_display@key 0024              __Umul8_16@word_mpld 0022  
                            l110 0895                              l103 1523                              l121 0AA7  
                            l300 1509                              l220 03E3                              l132 0B9D  
                            l303 081D                              l242 1797                              l227 07FE  
                            l163 0C09                              l309 1609                              l237 1798  
                            l191 0C98                              l178 0C3A                              l195 16AF  
                            l700 0E86                              l277 1516                              l294 1568  
                            l702 0E5F                              l198 16E0                              l297 168A  
                            l561 1739                              l721 0F73                              l811 15C8  
                            l395 1599                              l548 17FF                              l581 09B1  
                            l573 092C                              l813 15DA                              l717 0F4F  
                            l709 0FFF                              l397 15B1                              l742 158C  
                            l727 0F95                              l576 0998                              l850 07B8  
                            l739 0FFF                              l596 08F8                              l836 074D  
                            l589 090D                              l838 07E2                              l599 090D  
                            l792 0728                              l696 0E03                              l849 07AC  
                            l798 0698                              _GIE 005F                              _RB0 0030  
                            _RC1 0039                              _RC2 003A                              _RE1 0049  
                            _RE2 004A                              _PR2 0092             _set_time_for_program 0B9E  
                            _min 006B                              _sec 006C                              _isr 160A  
                 clcd_putch@addr 0020                              fsr0 0004                   clcd_putch@data 0021  
                            indf 0000                     ___awmod@sign 0077     read_digital_keypad@longpress 0069  
                   ___flmul@aexp 0034                     ___flmul@bexp 0039                     ___flmul@sign 0033  
                   ___flmul@temp 003E                     ___flmul@prod 003A                      _run_program 003D  
                   ___fltol@exp1 0049                             l2001 0DB6                             l2003 0DBB  
                           l2011 0DCB                             l2101 0EB3                             l2021 0DE1  
                           l2013 0DD3                             l2005 0DC0                             l2111 0EC5  
                           l2103 0EB7                             l2031 0DF8                             l2023 0DE5  
                           l2015 0DD6                             l2007 0DC8                             l2121 0F2B  
                           l2113 0ECE                             l2105 0EBE                             l2041 0E11  
                           l2033 0DF9                             l2025 0DE6                             l2017 0DDC  
                           l2009 0DC9                             l2131 0F5C                             l2123 0F2D  
                           l2107 0EC0                             l2115 0ED3                             l2051 0E1B  
                           l2043 0E13                             l2027 0DEB                             l2035 0DFB  
                           l2019 0DDD                             l2221 1512                             l2301 17F1  
                           l3101 15C2                             l2141 0F77                             l2125 0F32  
                           l2117 0EE9                             l2109 0EC4                             l2061 0E25  
                           l2053 0E1D                             l2045 0E15                             l2037 0E09  
                           l2029 0DF0                             l3111 1502                             l2215 07F9  
                           l2223 1513                             l2303 17F6                             l2311 16E2  
                           l3103 15D1                             l2143 0F7A                             l2135 0F65  
                           l2119 0F27                             l2127 0F41                             l2151 0F87  
                           l2063 0E27                             l2055 0E1F                             l2047 0E17  
                           l2039 0E0D                             l2071 0E2F                             l3113 1503  
                           l2217 150A                             l2305 17FB                             l2321 16F6  
                           l2313 16E6                             l3105 15D6                             l3201 04FF  
                           l2161 0F9A                             l2153 0F88                             l2145 0F7C  
                           l2137 0F6E                             l2129 0F57                             l2081 0E6C  
                           l2073 0E30                             l2065 0E29                             l2057 0E21  
                           l2049 0E19                             l2401 08FD                             l3121 1691  
          ??_read_digital_keypad 0072                             l3115 1504                             l2219 150E  
                           l2331 170E                             l2323 16FC                             l2315 16EB  
                           l3211 055E                             l3203 0508                             l2163 0F9F  
                           l2171 0FD3                             l2155 0F8C                             l2147 0F81  
                           l2139 0F72                             l2091 0E8A                             l2083 0E70  
                           l2075 0E47                             l2067 0E2B                             l2059 0E23  
                           l2403 0902                             l2251 158D                             l3131 16BA  
                           l3123 1694                             l3061 1556                             l3109 14FF  
                           l3117 080C                             l3301 0821                             l2341 1730  
                           l2333 1718                             l2325 16FF                             l2317 16ED  
                           l2309 16E1                             l3221 05F6                             l3213 0575  
                           l3205 0516                             l2181 0FEB                             l2173 0FD8  
                           l2165 0FAD                             l2157 0F92                             l2149 0F83  
                           l2093 0E8F                             l2085 0E71                             l2077 0E63  
                           l2069 0E2D                             l2405 1569                             l2261 15AD  
                           l2253 158F                             l3141 16D5                             l3133 16BD  
                           l3125 1699                             l3063 155C                             l3071 15F9  
                           l3311 085A                             l3303 082A                             l2271 17A3  
                           l2343 1735                             l2335 171E                             l2327 1706  
                           l2319 16F1                             l2351 0940                             l3231 0664  
                           l3223 061C                             l3215 0592                             l3207 0533  
                           l3151 03F2                             l3143 03E4                             l2191 0FFE  
                           l2183 0FEF                             l2175 0FDD                             l2167 0FB1  
                           l2087 0E7A                             l2079 0E6A                             l2407 156D  
                           l2255 1593                             l3135 16BE                             l3127 16A4  
                           l3119 168B                             l3057 154A                             l3081 1653  
                           l3065 15DB                             l3321 0875                             l3305 0838  
                           l2281 17B4                             l2273 17A5                             l2265 1799  
                           l2337 1725                             l2329 170A                             l2361 09AE  
                           l2353 0948                             l3241 067C                             l3233 0668  
                           l3225 0644                             l3217 05BD                             l3209 0541  
                           l3161 040E                             l3153 03F7                             l3145 03E9  
                           l2185 0FF1                             l2177 0FE5                             l2169 0FCF  
                           l2097 0E98                             l2089 0E7E                             l2257 15A0  
                           l3073 1517                             l3137 16BF                             l3129 16B5  
                           l3401 005D                             l3059 1554                             l3091 1679  
                           l3083 1663                             l3067 15E3                             l3323 0879  
                           l3307 083E                             l2611 173B                             l2291 17CC  
                           l2283 17BA                             l2275 17A9                             l2267 179A  
                           l2339 172B                             l2363 09B0                             l2355 094C  
                           l2347 090E                             l3251 069D                             l3243 067D  
                           l3235 0669                             l3227 064D                             l3219 05CB  
                           l3171 0421                             l3163 0413                             l3155 03FC  
                           l3147 03ED                             l2187 0FF5                             l2179 0FEA  
                           l2099 0EAF                             l2259 15A7                             l3075 151E  
                           l3139 16CA                             l3411 00BD                             l3403 0072  
                           l3331 09BB                             l3093 1685                             l3085 1668  
                           l3077 1644                             l3069 15F3                             l3325 087E  
                           l3317 085E                             l3309 0844                             l2621 1750  
                           l2613 1740                             l2293 17DD                             l2285 17BD  
                           l2277 17AE                             l2269 179E                             l2357 0970  
                           l2349 0924                             l3253 06A2                             l3261 06D3  
                           l3245 0681                             l3237 0672                             l3229 065B  
                           l3181 043D                             l3173 0426                             l3165 0417  
                           l3157 0404                             l3149 03F1                             l2189 0FFA  
                           l2381 08C8                             l2373 08AA                             l3421 011C  
                           l3413 00D8                             l3405 007D                             l2701 0BA5  
                           l3341 09D3                             l3333 09C0                             l3501 0C99  
                           l3087 166F                             l3079 164C                             l3327 0886  
                           l3319 0867                             l2631 1767                             l2623 1755  
                           l2295 17E3                             l2287 17C4                             l2279 17B2  
                           l2359 0974                             l3095 15B5                             l3271 0706  
                           l3263 06E0                             l3255 06B0                             l3247 0695  
                           l3239 0678                             l3191 0466                             l3183 0442  
                           l3175 042E                             l3167 041B                             l3159 0406  
                           l2391 08DD                             l2383 08CC                             l2375 08BD  
                           l2367 0896                             l3431 01C8                             l3423 0127  
                           l3415 00FE                             l3407 0098                             l2711 0BC0  
                           l3351 09F4                             l3343 09D4                             l3335 09C1  
                           l3511 0CBA                             l3503 0C99                             l3089 1672  
                           l2633 176D                             l2625 1757                             l2297 17E4  
                           l2289 17C8                             l3097 15B7                             l3281 0720  
                           l3273 0712                             l3265 06EB                             l3257 06B4  
                           l3193 0481                             l3177 0430                             l3169 041C  
                           l2393 08E6                             l2377 08BE                             l2369 08A1  
                           l2561 0755                             l2553 072C                             l3441 01F1  
                           l3433 01E5                             l3425 0132                             l3417 010C  
                           l3409 00B3                             l2721 0BD0                             l2713 0BC4  
                           l2705 0BAA                             l3353 0A34                             l3337 09C9  
                           l3345 09D9                             l3329 09B5                             l3361 0AAB  
                           l3521 0CEA                             l3513 0CC6                             l3505 0C9F  
                           l3291 07F6                             l2651 178F                             l2635 1772  
                           l2627 175B                             l2619 1745                             l2299 17EB  
                           l3099 15BE                             l3275 0716                             l3267 06FA  
                           l3259 06CD                             l3195 049D                             l3187 044B  
                           l3179 0438                             l2379 08C6                             l2571 076E  
                           l2555 0731                             l3451 0235                             l3443 01F3  
                           l3435 01E8                             l3427 0152                             l3419 0111  
                           l2731 0BEB                             l2723 0BE1                             l2715 0BC5  
                           l3355 0A3A                             l3347 09E4                             l3339 09CD  
                           l3371 0AC3                             l3363 0AB1                             l3531 0D10  
                           l3523 0CEF                             l3515 0CCC                             l3507 0CA4  
                           l3293 07F7                             l3285 07E3                             l2653 1795  
                           l2637 1778                             l2645 177F                             l2629 1760  
                           l3277 0717                             l3269 0704                             l3197 04C7  
                           l3189 0459                             l2389 08D4                             l2581 0797  
                           l2573 0775                             l2565 075E                             l2557 0735  
                           l3461 02F4                             l3453 025C                             l3445 020D  
                           l3429 018D                             l3437 01E9                             l2733 0BFC  
                           l2717 0BCB                             l2709 0BAF                             l3357 0A72  
                           l3349 09EE                             l3381 0AE4                             l3373 0AC9  
                           l3365 0AB2                             l3541 0D2B                             l3533 0D15  
                           l3525 0CF8                             l3517 0CDA                             l3509 0CAF  
                           l3287 07F2                             l3295 081E                             l2647 1788  
                           l2639 177C                             l3279 071C                             l3199 04E3  
                           l2399 08ED                             l2591 07D0                             l2583 07A2  
                           l2575 0779                             l2567 0761                             l2559 0745  
                           l3463 0300                             l3455 0268                             l3471 0329  
                           l3447 0213                             l3439 01EF                             l2751 0C1E  
                           l2743 0C0E                             l2735 0C00                             l2727 0BE6  
                           l3359 0A78                             l3391 0B6E                             l3383 0AEA  
                           l3375 0ACA                             l3367 0AB7                             l3543 0D30  
                           l3551 0D56                             l3535 0D1A                             l3527 0CFC  
                           l3519 0CE5                             l3289 07F5                             l2649 178D  
                           l2657 1797                             l2593 07D5                             l2585 07A6  
                           l2577 0787                             l2569 0765                             l3481 039F  
                           l3473 0344                             l3465 030C                             l3449 0229  
                           l3457 0274                             l3393 0040                             l2761 0C3A  
                           l2745 0C13                             l2737 0C03                             l3385 0B2A  
                           l3369 0ABF                             l3377 0ACF                             l3561 0D6F  
                           l3553 0D5C                             l3545 0D3B                             l3537 0D20  
                           l3529 0D0A                             l2595 07D9                             l2587 07B0  
                           l2579 0790                             l3491 03BE                             l3483 03A6  
                           l3475 035F                             l3467 0312                             l3459 027A  
                           l3395 0045                             l2771 0C5B                             l2763 0C40  
                           l2755 0C23                             l2747 0C17                             l2739 0C07  
                           l3387 0B30                             l3379 0ADA                             l3571 0D87  
                           l3563 0D76                             l3555 0D62                             l3547 0D46  
                           l3539 0D26                             l2597 07DA                             l2589 07BA  
                           l3493 03C9                             l3485 03AB                             l3477 0369  
                           l3469 031E                             l3397 004D                             l2765 0C51  
                           l2757 0C34                             l2749 0C18                             l2781 0C72  
                           l3389 0B68                             l3573 0D89                             l3565 0D7C  
                           l3581 0DA1                             l3557 0D64                             l3549 0D51  
                           l3495 03D7                             l3487 03AE                             l3479 0384  
                           l3399 0052                             l2767 0C56                             l2759 0C38  
                           l2695 0B9E                             l3575 0D8C                             l3559 0D68  
                           l1993 0DA8                             l3497 03DA                             l3489 03B3  
                           l2777 0C61                             l2769 0C5A                             l2697 0B9F  
                           l3569 0D81                             l1995 0DAD                             l3499 03DC  
                           l2699 0BA3                             l3579 0D93                             l1997 0DB1  
                           l1999 0DB5                             ?_isr 0070                             STR_1 1123  
                           STR_2 1129                             STR_3 10EA                             STR_4 110A  
                           STR_5 113E                             STR_6 1143                             STR_7 1103  
                           STR_8 1134                             STR_9 1147                             u2000 0DBB  
                           u2001 0DBA                             u2010 0DC0                             u2011 0DBF  
                           u2100 0E51                             u2020 0DDC                             u2021 0DDB  
                           u2110 0E63                             u2030 0DE5                             u2111 0E62  
                           u2031 0DE4                             u2200 0EC4                             u2120 0E70  
                           u2040 0DEB                             u2201 0EC3                             u2121 0E6F  
                           u2041 0DEA                             u2050 0DF0                             u2051 0DEF  
                           u2300 0F77                             u2220 0EE9                             u2140 0E86  
                           u2060 0E09                             u2301 0F76                             u2221 0EE8  
                           u2141 0E85                             u2061 0E08                             u2310 0F81  
                           u2150 0E8A                             u2070 0E0D                             u2311 0F80  
                           u2231 0F00                             u2223 0EE5                             u2215 0EC7  
                           u2151 0E89                             u2135 0E73                             u2071 0E0C  
                           u4000 03F7                             u2400 0FD8                             u2320 0F87  
                           u2240 0F14                             u2232 0F01                             u2160 0E8F  
                           u2080 0E47                             u4001 03F6                             u2401 0FD7  
                           u2321 0F86                             u2241 0F15                             u2233 0F06  
                           u2161 0E8E                             u2081 0E46                             u4010 03FC  
                           u2410 0FDD                             u2330 0F8C                             u2250 0F32  
                           u2242 0F1A                             u2234 0F07                             u2090 0E50  
                           u4011 03FB                             u2411 0FDC                             u2331 0F8B  
                           u2251 0F31                             u2243 0F1B                             u2235 0F0C  
                           u2171 0EA1                             u2091 0E4E                             u4020 041B  
                           u2420 0FEA                             u2340 0F92                             u2260 0F57  
                           u2236 0F0D                             u2180 0EB3                             u2172 0EA8  
                           u2500 1593                             u4101 04F1                             u4021 041A  
                           u2421 0FE9                             u2341 0F91                             u2261 0F56  
                           u2181 0EB2                             u2173 0EAF                             u2085 0E43  
                           u2501 1592                             u4102 04F8                             u4030 0421  
                           u2430 0FEF                             u2350 0F99                             u2270 0F5C  
                           u2190 0EB7                             u3310 0774                             u4103 04FF  
                           u4031 0420                             u2431 0FEE                             u2351 0F98  
                           u2271 0F5B                             u2191 0EB6                             u3311 0773  
                           u2600 17DD                             u4200 062A                             u4040 0426  
                           u2440 0FFE                             u2360 0F9F                             u3400 07D9  
                           u2601 17DC                             u4121 0525                             u4041 0425  
                           u2441 0FFD                             u2361 0F9E                             u3401 07D8  
                           u3305 0766                             u3410 1740                             u4122 052C  
                           u4050 043D                             u2370 0FB1                             u2290 0F72  
                           u2530 15AD                             u3330 0796                             u3411 173F  
                           u4211 0636                             u4131 0550                             u4123 0533  
                           u4115 0501                             u4051 043C                             u2371 0FB0  
                           u2291 0F71                             u2531 15AC                             u2515 159A  
                           u3331 0795                             u3500 1795                             u3420 1750  
                           u2620 17F1                             u2540 179E                             u4300 06A2  
                           u4212 063D                             u4132 0557                             u4060 0442  
                           u2380 0FC0                             u3501 1794                             u3421 174F  
                           u2621 17F0                             u2605 17D9                             u2541 179D  
                           u4301 06A1                             u4213 0644                             u4205 0625  
                           u4133 055E                             u4061 0441                             u2285 0F67  
                           u2525 15A1                             u3325 0788                             u3430 1755  
                           u2630 17F6                             u2550 17A9                             u2710 172B  
                           u4310 06B4                             u2390 0FCF                             u3350 07A6  
                           u3270 0731                             u3431 1754                             u2631 17F5  
                           u2615 17E5                             u2551 17A8                             u2711 172A  
                           u4311 06B3                             u4151 0584                             u4071 048F  
                           u2391 0FCE                             u3351 07A5                             u3271 0730  
                           u3440 1760                             u2560 17BA                             u2720 1730  
                           u2640 16E6                             u4320 06C3                             u4240 0668  
                           u4152 058B                             u4072 0496                             u2800 08A1  
                           u3360 07AC                             u3280 0735                             u4400 09D3  
                           u3441 175F                             u2561 17B9                             u2721 172F  
                           u2705 171F                             u2641 16E5                             u4241 0667  
                           u4225 0646                             u4161 05AF                             u4153 0592  
                           u4145 0560                             u4081 04AB                             u4073 049D  
                           u2385 0FBB                             u2801 08A0                             u3361 07AB  
                           u3345 079B                             u3281 0734                             u4401 09D2  
                           u3450 1767                             u2650 16F1                             u2730 0924  
                           u4330 06E0                             u4162 05B6                             u4082 04B2  
                           u2810 08B8                             u3370 07B0                             u3290 0755  
                           u4410 09F4                             u3451 1766                             u2651 16F0  
                           u2731 0923                             u4331 06DF                             u4235 065D  
                           u4171 05DA                             u4163 05BD                             u4091 04D5  
                           u4083 04B9                             u3371 07AF                             u3291 0754  
                           u4411 09F3                             u3460 176D                             u2580 17CC  
                           u2660 16FC                             u2740 0940                             u4340 06FA  
                           u4260 067C                             u4180 0602                             u4172 05E1  
                           u4092 04DC                             u2820 08CC                             u3380 07C5  
                           u4500 004D                             u4420 0A3A                             u3461 176C  
                           u2581 17CB                             u2661 16FB                             u2741 093F  
                           u4341 06F9                             u4325 06BE                             u4261 067B  
                           u4173 05E8                             u4093 04E3                             u2821 08CB  
                           u4501 004C                             u4421 0A39                             u3470 1778  
                           u2750 094C                             u4350 0716                             u4270 0681  
                           u2830 08D3                             u3390 07D5                             u4510 01EF  
                           u4430 0A78                             u3471 1777                             u2575 17BE  
                           u2751 094B                             u4351 0715                             u4335 06DC  
                           u4271 0680                             u4255 066B                             u4191 060E  
                           u2831 08D2                             u2815 08B3                             u3391 07D4  
                           u4511 01EE                             u4431 0A77                             u4360 0844  
                           u3480 1788                             u2680 170E                             u4280 0695  
                           u4192 0615                             u4520 0213                             u4440 0AB1  
                           u4600 0CDA                             u4361 0843                             u3481 1787  
                           u2681 170D                             u2761 095B                             u4345 06F6  
                           u4281 0694                             u4193 061C                             u4185 05FD  
                           u3385 07C0                             u4521 0212                             u4441 0AB0  
                           u4601 0CD9                             u4370 087E                             u3490 178D  
                           u2690 1718                             u2770 0974                             u2762 095C  
                           u4290 069C                             u2850 08E5                             u4530 0229  
                           u4450 0ABF                             u4610 0CE5                             u4371 087D  
                           u3491 178C                             u2595 17CD                             u2691 1717  
                           u2675 1700                             u2771 0973                             u2763 0961  
                           u4291 069B                             u2851 08E4                             u4531 0228  
                           u4451 0ABE                             u4611 0CE4                             _PEIE 005E  
                           u2764 0962                             u2860 08EC                             u4540 025C  
                           u4380 09BB                             u4460 0AC9                             u4700 0D87  
                           u4620 0D0A                             u2781 0983                             u2765 0967  
                           u2861 08EB                             u2845 08D5                             u4541 025B  
                           u4381 09BA                             u4461 0AC8                             u4701 0D86  
                           u4621 0D09                             u3910 1551                             u2790 09AE  
                           u2782 0984                             u2766 0968                             u1990 0DB5  
                           u4550 027A                             u4390 09C9                             u4470 0AEA  
                           u4630 0D10                             u3911 154D                             u2695 1714  
                           u2791 09AD                             u2783 0989                             u1991 0DB4  
                           u4551 0279                             u4535 0225                             u4391 09C8  
                           u4471 0AE9                             u4631 0D0F                             u2784 098A  
                           u2880 08FD                             u4560 02F4                             u4480 0B30  
                           u4640 0D15                             u2785 098F                             u2881 08FC  
                           u4561 02F3                             u4545 0258                             u4481 0B2F  
                           u4641 0D14                             u3930 1609                             u2786 0990  
                           u2890 0902                             u4570 0312                             u4490 0B6E  
                           u4650 0D20                             u3931 1608                             u2795 09AA  
                           u2891 0901                             u2875 08EF                             u4571 0311  
                           u4491 0B6D                             u4651 0D1F                             u3924 1554  
                           u3940 15C2                             u4580 03A6                             u4660 0D26  
                           u3941 15C1                             u4581 03A5                             u4717 0106  
                           u4661 0D25                             u4590 03AB                             u4670 0D5C  
                           u4807 167B                             u4727 03D1                             u4591 03AA  
                           u4671 0D5B                             u3960 15D6                             u4680 0D62  
                           u4817 1687                             u3961 15D5                             u4737 1520  
                           u4681 0D61                             u3970 1691                             u4690 0D7C  
                           u4827 1559                             u4747 0832                             u3955 15C9  
                           u3971 1690                             u4691 0D7B                             u3980 16B5  
                           u4837 1563                             u4757 086F                             u3981 16B4  
                           u3990 03F1                             u4767 088E                             u3991 03F0  
                           u4777 1648                             u4787 1657                             u4797 1665  
                           _main 0C99                             btemp 007E                             start 000C  
                 clcd_write@byte 0075                   clcd_write@mode 0072          __end_of_power_on_screen 0896  
      ??_washing_program_display 0022                            ??_isr 0070                    ___fltol@sign1 0048  
                __end_of___fladd 1000                            ?_main 0070                  __end_of___awdiv 1800  
                          STR_10 1022                            STR_11 1000                            STR_20 10C7  
                          STR_12 1055                            STR_13 10AE                            STR_21 10A1  
                          STR_30 1044                            STR_22 10DF                            STR_14 1094  
                          STR_31 1139                            STR_23 112F                            STR_15 10BB  
                          STR_32 111D                            STR_24 1044                            STR_16 1011  
                          STR_33 1111                            STR_25 10FC                            STR_17 1033  
                          STR_34 111D                            STR_26 1117                            STR_18 1076  
                          STR_35 1111                            STR_27 10F4                            STR_19 10D3  
                          STR_28 10DF                            STR_36 111D                  __end_of___awmod 173A  
                          STR_29 112F                            STR_37 1139                            STR_38 1066  
                          STR_39 1086                  __end_of___flmul 0729                  __end_of___flsub 158D  
                __end_of___fltol 090E                  ___awdiv@divisor 0072            ?_set_time_for_program 0070  
                          i1l264 163D                     ?_init_config 0070                  ___awdiv@counter 0076  
                          _PORTB 0006                            _PORTD 0008                            _TRISB 0086  
                          _TRISD 0088                     ?_init_timer2 0070             __end_of_clear_screen 1524  
          run_program@total_time 0063                            main@j 005C                            pclath 000A  
                          status 0003                            wtemp0 007E                  __initialization 000F  
                   __end_of_main 0DA8                           ??_main 007A                   run_program@key 005B  
__end_of_washing_program_display 0AA8                 ___awdiv@dividend 0074                           i1l3041 1621  
                         i1l3051 1637                           i1l3043 1623                           i1l3053 1639  
                         i1l3045 162A                           i1l3037 160A                           i1l3047 162D  
                         i1l3055 163B                           i1l3039 1610                           i1l3049 1632  
                         u390_20 1637                           u390_21 1636                           u386_20 1610  
                         u386_21 160F                           u387_20 1621                           u387_21 1620  
                         u388_20 162A                           u388_21 1629                           u389_20 1632  
                         u389_21 1631                           _TMR2IE 0461                           _TMR2IF 0061  
                         _TMR2ON 0092                           _TRISC1 0439                           _TRISC2 043A  
                         _TRISE1 0449                           _TRISE2 044A                 __end_of___xxtofl 07E3  
    __end_of_init_digital_keypad 07FF                           ___flge 090E          _init_display_controller 1644  
                      ??___fladd 0020                           ___wmul 158D                        ??___awdiv 0076  
               ?_power_on_screen 0070                        ??___awmod 0076                        ??___flmul 002E  
                      ??___flsub 007A                        ??___fltol 0044      __end_of_water_level_display 0B9E  
               ___awdiv@quotient 0078                  ___awmod@divisor 0072           ??_set_time_for_program 0072  
                ___awmod@counter 0076                           saved_w 007E                       ___flge@ff1 0048  
                     ___flge@ff2 004C                     ___xxtofl@arg 0022                     ___xxtofl@exp 0021  
                   ___xxtofl@val 0072          __end_of__initialization 0039                       ___fltol@f1 0040  
                 __pcstackCOMMON 0070                     __pidataBANK0 07FF                     __pidataBANK1 1524  
                   ?_run_program 0070                       __pbssBANK0 0061                       __pbssBANK1 00B2  
                run_program@time 0061        ??_init_display_controller 0076                       _clcd_print 15DB  
                     _clcd_putch 0809                       _clcd_write 1549                __end_of__Umul8_16 15DB  
                     __pmaintext 0C99                     _clear_screen 1517                          ?___flge 0048  
                        ?___wmul 0072                       __pintentry 0004                          _T2CKPS0 0090  
                        _T2CKPS1 0091      __end_of_read_digital_keypad 1799                        ?___xxtofl 0072  
                     __stringtab 114B                          ___fladd 0DA8                          ___awdiv 1799  
                        ___awmod 16E1                          ___flmul 03E4                          ___flsub 1569  
                        ___fltol 0896                          __ptext1 0AA8                          __ptext2 09B2  
                        __ptext3 0B9E                          __ptext4 003D                          __ptext5 168B  
                        __ptext6 1517                          __ptext7 0729                          __ptext8 158D  
                        __ptext9 0896  __end_of_init_display_controller 168B                __end_of_init_clcd 150A  
                     ??___xxtofl 0076                 ___awmod@dividend 0074                          main@key 0060  
           end_of_initialization 0039                   _operation_mode 006E                      ?_clcd_print 0076  
                    ?_clcd_putch 0020                      ?_clcd_write 0072         ?_washing_program_display 0070  
                     _reset_mode 006D                     __pstringtext 1000                       _rinse_time 0065  
                    ___fladd@grs 002B       washing_program_display@key 0024                       _program_no 007B  
                  ___xxtofl@sign 0020                    clcd_print@str 0076                      ___flmul@grs 0035  
                 __end_of___flge 09B2                   __end_of___wmul 15B2              start_initialization 000F  
                    __end_of_isr 1644                         ??___flge 0050                         ??___wmul 0076  
                     init_fetch0 1536                        __Umul8_16 15B2                      __pdataBANK0 006F  
                    __pdataBANK1 00A0       read_digital_keypad@pre_key 006A                    ??_init_config 0078  
                      ___fladd@a 0076                        ___fladd@b 0072                    ??_init_timer2 0072  
                      ___flmul@a 002A                        ___flmul@b 0026                      __pbssCOMMON 007A  
                      ___flsub@a 0040                        ___flsub@b 0044                        ___latbits 0002  
                  __pcstackBANK0 0020                        __pnvBANK0 006D             power_on_screen@i_140 0026  
                       ?___fladd 0072                         ?___awdiv 0072                         ?___awmod 0072  
                       ?___flmul 0026                         ?___flsub 0040                         ?___fltol 0040  
                     ?__Umul8_16 0072                        __pstrings 114B                        _init_clcd 14FF  
            __end_of_init_config 07F9                ??_power_on_screen 0022              __end_of_init_timer2 1517  
       ?_init_display_controller 0070                interrupt_function 0004                   ___wmul@product 0076  
                   ??_clcd_print 0079                     ??_clcd_putch 007A                     ??_clcd_write 0073  
                _water_level_arr 00A0                        _wash_time 0067                        _spin_time 00B4  
                    __stringbase 115D                        main@j_131 005E                ___wmul@multiplier 0072  
             __end_of_clcd_print 160A               __end_of_clcd_putch 081E               __end_of_clcd_write 1569  
                     ?_init_clcd 0070              _init_digital_keypad 07F9              _water_level_display 0AA8  
                    ??__Umul8_16 0074             ?_init_digital_keypad 0070               __end_of__stringtab 115D  
                    _init_config 07E3             ?_water_level_display 0070                         ___xxtofl 0729  
                    _init_timer2 150A                    ??_run_program 0054                         __ptext10 1569  
                       __ptext11 0DA8                         __ptext20 15DB                         __ptext12 03E4  
                       __ptext21 07E3                         __ptext13 15B2                         __ptext22 150A  
                       __ptext14 090E                         __ptext23 07F9                         __ptext15 16E1  
                       __ptext24 14FF                         __ptext16 1799                         __ptext25 1644  
                       __ptext17 173A                         __ptext26 1549                         __ptext18 081E  
                       __ptext27 160A                         __ptext19 0809     __end_of_set_time_for_program 0C99  
        read_digital_keypad@mode 0073          read_digital_keypad@once 006F                    ?_clear_screen 0070  
          ??_init_digital_keypad 0072                _door_status_check 168B               ?_door_status_check 0070  
          ??_water_level_display 0022                         isr@count 00B2              ??_door_status_check 0079  
                       init_ram0 153A                      ??_init_clcd 0078                         intlevel1 0000  
            __end_of_run_program 03E4                        stringcode 1155                   ??_clear_screen 0076  
      __end_of_door_status_check 16E1              _read_digital_keypad 173A                _water_level_index 007A  
        _washing_program_display 09B2           __Umul8_16@multiplicand 0072                  _power_on_screen 081E  
                   _washing_prog 00AA                         stringtab 114B                    ___fladd@signs 0028  
           ?_read_digital_keypad 0070                 power_on_screen@i 0025                     ___fladd@aexp 0029  
                   ___fladd@bexp 002A             __Umul8_16@multiplier 0024                __Umul8_16@product 0020  
